Component: ARM Compiler 5.06 update 7 (build 960) Tool: armlink [4d3601]

==============================================================================

Section Cross References

    startup_stm32f407xx.o(STACK) refers (Special) to heapauxi.o(.text) for __use_two_region_memory
    startup_stm32f407xx.o(HEAP) refers (Special) to heapauxi.o(.text) for __use_two_region_memory
    startup_stm32f407xx.o(RESET) refers (Special) to heapauxi.o(.text) for __use_two_region_memory
    startup_stm32f407xx.o(RESET) refers to startup_stm32f407xx.o(STACK) for __initial_sp
    startup_stm32f407xx.o(RESET) refers to startup_stm32f407xx.o(.text) for Reset_Handler
    startup_stm32f407xx.o(RESET) refers to usmart_port.o(i.TIM4_IRQHandler) for TIM4_IRQHandler
    startup_stm32f407xx.o(RESET) refers to usart.o(i.USART1_IRQHandler) for USART1_IRQHandler
    startup_stm32f407xx.o(RESET) refers to btim.o(i.TIM6_DAC_IRQHandler) for TIM6_DAC_IRQHandler
    startup_stm32f407xx.o(RESET) refers to dcmi.o(i.DMA2_Stream1_IRQHandler) for DMA2_Stream1_IRQHandler
    startup_stm32f407xx.o(RESET) refers to dcmi.o(i.DCMI_IRQHandler) for DCMI_IRQHandler
    startup_stm32f407xx.o(.text) refers (Special) to heapauxi.o(.text) for __use_two_region_memory
    startup_stm32f407xx.o(.text) refers to __main.o(!!!main) for __main
    startup_stm32f407xx.o(.text) refers to startup_stm32f407xx.o(HEAP) for Heap_Mem
    startup_stm32f407xx.o(.text) refers to startup_stm32f407xx.o(STACK) for Stack_Mem
    main.o(i.SensorGPIOConfig) refers to sys.o(i.sys_gpio_set) for sys_gpio_set
    main.o(i.SensorStatus) refers to sys.o(i.sys_gpio_pin_get) for sys_gpio_pin_get
    main.o(i.SensorStatus) refers to main.o(.data) for SensorFlag
    main.o(i.camera_new_pathname) refers to _printf_pad.o(.text) for _printf_pre_padding
    main.o(i.camera_new_pathname) refers to _printf_percent.o(.ARM.Collect$$_printf_percent$$00000000) for _printf_percent
    main.o(i.camera_new_pathname) refers to _printf_d.o(.ARM.Collect$$_printf_percent$$00000009) for _printf_d
    main.o(i.camera_new_pathname) refers to _printf_dec.o(.text) for _printf_int_dec
    main.o(i.camera_new_pathname) refers to malloc.o(i.mymalloc) for mymalloc
    main.o(i.camera_new_pathname) refers to noretval__2sprintf.o(.text) for __2sprintf
    main.o(i.camera_new_pathname) refers to ff.o(i.f_open) for f_open
    main.o(i.camera_new_pathname) refers to malloc.o(i.myfree) for myfree
    main.o(i.cross) refers to pwmdac.o(i.open_door) for open_door
    main.o(i.cross) refers to main.o(i.SensorStatus) for SensorStatus
    main.o(i.cross) refers to delay.o(i.delay_ms) for delay_ms
    main.o(i.cross) refers to pwmdac.o(i.close_door) for close_door
    main.o(i.cross) refers to syn6288.o(i.alarm_say) for alarm_say
    main.o(i.cross) refers to main.o(.data) for SensorFlag
    main.o(i.jpeg_data_process) refers to lcd.o(i.lcd_set_cursor) for lcd_set_cursor
    main.o(i.jpeg_data_process) refers to lcd.o(i.lcd_write_ram_prepare) for lcd_write_ram_prepare
    main.o(i.jpeg_data_process) refers to main.o(.data) for g_ov_mode
    main.o(i.jpeg_dcmi_rx_callback) refers to main.o(.data) for p_jpeg_data_buf
    main.o(i.main) refers to _printf_percent.o(.ARM.Collect$$_printf_percent$$00000000) for _printf_percent
    main.o(i.main) refers to _printf_d.o(.ARM.Collect$$_printf_percent$$00000009) for _printf_d
    main.o(i.main) refers to _printf_x.o(.ARM.Collect$$_printf_percent$$0000000C) for _printf_x
    main.o(i.main) refers to _printf_dec.o(.text) for _printf_int_dec
    main.o(i.main) refers to _printf_hex_int.o(.text) for _printf_longlong_hex
    main.o(i.main) refers to _printf_pad.o(.text) for _printf_pre_padding
    main.o(i.main) refers to sys.o(i.sys_stm32_clock_init) for sys_stm32_clock_init
    main.o(i.main) refers to delay.o(i.delay_init) for delay_init
    main.o(i.main) refers to usart.o(i.usart_init) for usart_init
    main.o(i.main) refers to usart2.o(i.usart2_init) for usart2_init
    main.o(i.main) refers to pwmdac.o(i.pwmdac_init) for pwmdac_init
    main.o(i.main) refers to led.o(i.led_init) for led_init
    main.o(i.main) refers to lcd.o(i.lcd_init) for lcd_init
    main.o(i.main) refers to key.o(i.key_init) for key_init
    main.o(i.main) refers to sram.o(i.sram_init) for sram_init
    main.o(i.main) refers to norflash.o(i.norflash_init) for norflash_init
    main.o(i.main) refers to beep.o(i.beep_init) for beep_init
    main.o(i.main) refers to btim.o(i.btim_timx_int_init) for btim_timx_int_init
    main.o(i.main) refers to piclib.o(i.piclib_init) for piclib_init
    main.o(i.main) refers to main.o(i.SensorGPIOConfig) for SensorGPIOConfig
    main.o(i.main) refers to malloc.o(i.my_mem_init) for my_mem_init
    main.o(i.main) refers to exfuns.o(i.exfuns_init) for exfuns_init
    main.o(i.main) refers to ff.o(i.f_mount) for f_mount
    main.o(i.main) refers to lcd.o(i.lcd_show_string) for lcd_show_string
    main.o(i.main) refers to delay.o(i.delay_ms) for delay_ms
    main.o(i.main) refers to lcd.o(i.lcd_fill) for lcd_fill
    main.o(i.main) refers to fonts.o(i.fonts_init) for fonts_init
    main.o(i.main) refers to text.o(i.text_show_string) for text_show_string
    main.o(i.main) refers to noretval__2sprintf.o(.text) for __2sprintf
    main.o(i.main) refers to ff.o(i.f_mkdir) for f_mkdir
    main.o(i.main) refers to malloc.o(i.mymalloc) for mymalloc
    main.o(i.main) refers to ov2640.o(i.ov2640_init) for ov2640_init
    main.o(i.main) refers to ov2640.o(i.ov2640_rgb565_mode) for ov2640_rgb565_mode
    main.o(i.main) refers to dcmi.o(i.dcmi_init) for dcmi_init
    main.o(i.main) refers to dcmi.o(i.dcmi_dma_init) for dcmi_dma_init
    main.o(i.main) refers to ov2640.o(i.ov2640_outsize_set) for ov2640_outsize_set
    main.o(i.main) refers to dcmi.o(i.dcmi_start) for dcmi_start
    main.o(i.main) refers to lcd.o(i.lcd_clear) for lcd_clear
    main.o(i.main) refers to recog.o(i.atk_frec_initialization) for atk_frec_initialization
    main.o(i.main) refers to key.o(i.key_scan) for key_scan
    main.o(i.main) refers to dcmi.o(i.dcmi_stop) for dcmi_stop
    main.o(i.main) refers to main.o(i.sw_sdcard_mode) for sw_sdcard_mode
    main.o(i.main) refers to face_recognition.o(i.frec_get_image_data) for frec_get_image_data
    main.o(i.main) refers to recog.o(i.atk_frec_recognition_face) for atk_frec_recognition_face
    main.o(i.main) refers to usmart_config.o(.data) for usmart_dev
    main.o(i.main) refers to exfuns.o(.data) for fs
    main.o(i.main) refers to lcd.o(.bss) for lcddev
    main.o(i.main) refers to main.o(.data) for p_dcmi_line_buf
    main.o(i.main) refers to syn6288.o(i.error_say) for error_say
    main.o(i.main) refers to syn6288.o(i.open_say) for open_say
    main.o(i.main) refers to main.o(i.cross) for cross
    main.o(i.main) refers to recog.o(i.atk_frec_add_a_face) for atk_frec_add_a_face
    main.o(i.main) refers to recog.o(i.atk_frec_load_data_model) for atk_frec_load_data_model
    main.o(i.main) refers to atk_frec.o(i.atk_frec_delete_data) for atk_frec_delete_data
    main.o(i.main) refers to main.o(i.sw_ov2640_mode) for sw_ov2640_mode
    main.o(i.ov2640_jpg_photo) refers to _printf_percent.o(.ARM.Collect$$_printf_percent$$00000000) for _printf_percent
    main.o(i.ov2640_jpg_photo) refers to _printf_d.o(.ARM.Collect$$_printf_percent$$00000009) for _printf_d
    main.o(i.ov2640_jpg_photo) refers to _printf_dec.o(.text) for _printf_int_dec
    main.o(i.ov2640_jpg_photo) refers to malloc.o(i.mymalloc) for mymalloc
    main.o(i.ov2640_jpg_photo) refers to main.o(i.sw_ov2640_mode) for sw_ov2640_mode
    main.o(i.ov2640_jpg_photo) refers to ov2640.o(i.ov2640_jpeg_mode) for ov2640_jpeg_mode
    main.o(i.ov2640_jpg_photo) refers to dcmi.o(i.dcmi_dma_init) for dcmi_dma_init
    main.o(i.ov2640_jpg_photo) refers to ov2640.o(i.ov2640_image_win_set) for ov2640_image_win_set
    main.o(i.ov2640_jpg_photo) refers to ov2640.o(i.ov2640_outsize_set) for ov2640_outsize_set
    main.o(i.ov2640_jpg_photo) refers to dcmi.o(i.dcmi_start) for dcmi_start
    main.o(i.ov2640_jpg_photo) refers to dcmi.o(i.dcmi_stop) for dcmi_stop
    main.o(i.ov2640_jpg_photo) refers to main.o(i.sw_sdcard_mode) for sw_sdcard_mode
    main.o(i.ov2640_jpg_photo) refers to noretval__2printf.o(.text) for __2printf
    main.o(i.ov2640_jpg_photo) refers to ff.o(i.f_open) for f_open
    main.o(i.ov2640_jpg_photo) refers to malloc.o(i.my_mem_copy) for my_mem_copy
    main.o(i.ov2640_jpg_photo) refers to ff.o(i.f_write) for f_write
    main.o(i.ov2640_jpg_photo) refers to ff.o(i.f_close) for f_close
    main.o(i.ov2640_jpg_photo) refers to ov2640.o(i.ov2640_rgb565_mode) for ov2640_rgb565_mode
    main.o(i.ov2640_jpg_photo) refers to malloc.o(i.myfree) for myfree
    main.o(i.ov2640_jpg_photo) refers to main.o(.data) for g_ov_mode
    main.o(i.ov2640_jpg_photo) refers to main.o(i.jpeg_dcmi_rx_callback) for jpeg_dcmi_rx_callback
    main.o(i.ov2640_jpg_photo) refers to dcmi.o(.data) for dcmi_rx_callback
    main.o(i.sw_ov2640_mode) refers to sys.o(i.sys_gpio_pin_set) for sys_gpio_pin_set
    main.o(i.sw_ov2640_mode) refers to sys.o(i.sys_gpio_af_set) for sys_gpio_af_set
    main.o(i.sw_sdcard_mode) refers to sys.o(i.sys_gpio_pin_set) for sys_gpio_pin_set
    main.o(i.sw_sdcard_mode) refers to sys.o(i.sys_gpio_af_set) for sys_gpio_af_set
    face_recognition.o(i.frec_get_image_data) refers to lcd.o(i.lcd_read_point) for lcd_read_point
    syn6288.o(i.SYN_FrameInfo) refers to strlen.o(.text) for strlen
    syn6288.o(i.SYN_FrameInfo) refers to rt_memcpy_v6.o(.text) for __aeabi_memcpy
    syn6288.o(i.SYN_FrameInfo) refers to usart2.o(i.USART2_SendString) for USART2_SendString
    syn6288.o(i.YS_SYN_Set) refers to strlen.o(.text) for strlen
    syn6288.o(i.YS_SYN_Set) refers to usart2.o(i.USART2_SendString) for USART2_SendString
    syn6288.o(i.alarm_say) refers to syn6288.o(i.SYN_FrameInfo) for SYN_FrameInfo
    syn6288.o(i.error_say) refers to syn6288.o(i.SYN_FrameInfo) for SYN_FrameInfo
    syn6288.o(i.open_say) refers to syn6288.o(i.SYN_FrameInfo) for SYN_FrameInfo
    delay.o(i.delay_init) refers to delay.o(.data) for g_fac_us
    delay.o(i.delay_ms) refers to delay.o(i.delay_us) for delay_us
    delay.o(i.delay_us) refers to delay.o(.data) for g_fac_us
    sys.o(i.sys_nvic_init) refers to sys.o(i.sys_nvic_priority_group_config) for sys_nvic_priority_group_config
    sys.o(i.sys_standby) refers to sys.o(i.sys_wfi_set) for sys_wfi_set
    sys.o(i.sys_stm32_clock_init) refers to sys.o(i.sys_clock_set) for sys_clock_set
    sys.o(i.sys_stm32_clock_init) refers to sys.o(i.sys_nvic_set_vector_table) for sys_nvic_set_vector_table
    usart.o(.rev16_text) refers (Special) to use_no_semi_2.o(.text) for __use_no_semihosting
    usart.o(.revsh_text) refers (Special) to use_no_semi_2.o(.text) for __use_no_semihosting
    usart.o(.rrx_text) refers (Special) to use_no_semi_2.o(.text) for __use_no_semihosting
    usart.o(i.USART1_IRQHandler) refers (Special) to use_no_semi_2.o(.text) for __use_no_semihosting
    usart.o(i.USART1_IRQHandler) refers to usart.o(.data) for g_usart_rx_sta
    usart.o(i.USART1_IRQHandler) refers to usart.o(.bss) for g_usart_rx_buf
    usart.o(i._sys_command_string) refers (Special) to use_no_semi_2.o(.text) for __use_no_semihosting
    usart.o(i._sys_exit) refers (Special) to use_no_semi_2.o(.text) for __use_no_semihosting
    usart.o(i._ttywrch) refers (Special) to use_no_semi_2.o(.text) for __use_no_semihosting
    usart.o(i.fputc) refers (Special) to use_no_semi_2.o(.text) for __use_no_semihosting
    usart.o(i.usart_init) refers (Special) to use_no_semi_2.o(.text) for __use_no_semihosting
    usart.o(i.usart_init) refers to sys.o(i.sys_gpio_set) for sys_gpio_set
    usart.o(i.usart_init) refers to sys.o(i.sys_gpio_af_set) for sys_gpio_af_set
    usart.o(i.usart_init) refers to sys.o(i.sys_nvic_init) for sys_nvic_init
    usart.o(.bss) refers (Special) to use_no_semi_2.o(.text) for __use_no_semihosting
    usart.o(.data) refers (Special) to use_no_semi_2.o(.text) for __use_no_semihosting
    led.o(i.led_init) refers to sys.o(i.sys_gpio_set) for sys_gpio_set
    led.o(i.led_init) refers to sys.o(i.sys_gpio_pin_set) for sys_gpio_pin_set
    lcd.o(i.lcd_clear) refers to lcd.o(i.lcd_set_cursor) for lcd_set_cursor
    lcd.o(i.lcd_clear) refers to lcd.o(i.lcd_write_ram_prepare) for lcd_write_ram_prepare
    lcd.o(i.lcd_clear) refers to lcd.o(.bss) for lcddev
    lcd.o(i.lcd_color_fill) refers to lcd.o(i.lcd_set_cursor) for lcd_set_cursor
    lcd.o(i.lcd_color_fill) refers to lcd.o(i.lcd_write_ram_prepare) for lcd_write_ram_prepare
    lcd.o(i.lcd_display_dir) refers to lcd.o(i.lcd_scan_dir) for lcd_scan_dir
    lcd.o(i.lcd_display_dir) refers to lcd.o(.bss) for lcddev
    lcd.o(i.lcd_display_off) refers to lcd.o(i.lcd_wr_regno) for lcd_wr_regno
    lcd.o(i.lcd_display_off) refers to lcd.o(.bss) for lcddev
    lcd.o(i.lcd_display_on) refers to lcd.o(i.lcd_wr_regno) for lcd_wr_regno
    lcd.o(i.lcd_display_on) refers to lcd.o(.bss) for lcddev
    lcd.o(i.lcd_draw_circle) refers to lcd.o(i.lcd_draw_point) for lcd_draw_point
    lcd.o(i.lcd_draw_hline) refers to lcd.o(i.lcd_fill) for lcd_fill
    lcd.o(i.lcd_draw_hline) refers to lcd.o(.bss) for lcddev
    lcd.o(i.lcd_draw_line) refers to lcd.o(i.lcd_draw_point) for lcd_draw_point
    lcd.o(i.lcd_draw_point) refers to lcd.o(i.lcd_set_cursor) for lcd_set_cursor
    lcd.o(i.lcd_draw_point) refers to lcd.o(i.lcd_write_ram_prepare) for lcd_write_ram_prepare
    lcd.o(i.lcd_draw_rectangle) refers to lcd.o(i.lcd_draw_line) for lcd_draw_line
    lcd.o(i.lcd_ex_ili9341_reginit) refers to lcd.o(i.lcd_wr_regno) for lcd_wr_regno
    lcd.o(i.lcd_ex_ili9341_reginit) refers to lcd.o(i.lcd_wr_data) for lcd_wr_data
    lcd.o(i.lcd_ex_ili9341_reginit) refers to delay.o(i.delay_ms) for delay_ms
    lcd.o(i.lcd_ex_ili9806_reginit) refers to lcd.o(i.lcd_wr_regno) for lcd_wr_regno
    lcd.o(i.lcd_ex_ili9806_reginit) refers to lcd.o(i.lcd_wr_data) for lcd_wr_data
    lcd.o(i.lcd_ex_ili9806_reginit) refers to delay.o(i.delay_ms) for delay_ms
    lcd.o(i.lcd_ex_nt35310_reginit) refers to lcd.o(i.lcd_wr_regno) for lcd_wr_regno
    lcd.o(i.lcd_ex_nt35310_reginit) refers to lcd.o(i.lcd_wr_data) for lcd_wr_data
    lcd.o(i.lcd_ex_nt35310_reginit) refers to delay.o(i.delay_ms) for delay_ms
    lcd.o(i.lcd_ex_nt35510_reginit) refers to lcd.o(i.lcd_write_reg) for lcd_write_reg
    lcd.o(i.lcd_ex_nt35510_reginit) refers to lcd.o(i.lcd_wr_regno) for lcd_wr_regno
    lcd.o(i.lcd_ex_nt35510_reginit) refers to delay.o(i.delay_us) for delay_us
    lcd.o(i.lcd_ex_ssd1963_reginit) refers to lcd.o(i.lcd_wr_regno) for lcd_wr_regno
    lcd.o(i.lcd_ex_ssd1963_reginit) refers to lcd.o(i.lcd_wr_data) for lcd_wr_data
    lcd.o(i.lcd_ex_ssd1963_reginit) refers to delay.o(i.delay_us) for delay_us
    lcd.o(i.lcd_ex_ssd1963_reginit) refers to delay.o(i.delay_ms) for delay_ms
    lcd.o(i.lcd_ex_st7789_reginit) refers to lcd.o(i.lcd_wr_regno) for lcd_wr_regno
    lcd.o(i.lcd_ex_st7789_reginit) refers to delay.o(i.delay_ms) for delay_ms
    lcd.o(i.lcd_ex_st7789_reginit) refers to lcd.o(i.lcd_wr_data) for lcd_wr_data
    lcd.o(i.lcd_ex_st7796_reginit) refers to lcd.o(i.lcd_wr_regno) for lcd_wr_regno
    lcd.o(i.lcd_ex_st7796_reginit) refers to delay.o(i.delay_ms) for delay_ms
    lcd.o(i.lcd_ex_st7796_reginit) refers to lcd.o(i.lcd_wr_data) for lcd_wr_data
    lcd.o(i.lcd_fill) refers to lcd.o(i.lcd_set_cursor) for lcd_set_cursor
    lcd.o(i.lcd_fill) refers to lcd.o(i.lcd_write_ram_prepare) for lcd_write_ram_prepare
    lcd.o(i.lcd_fill_circle) refers to lcd.o(i.lcd_draw_hline) for lcd_draw_hline
    lcd.o(i.lcd_init) refers to _printf_percent.o(.ARM.Collect$$_printf_percent$$00000000) for _printf_percent
    lcd.o(i.lcd_init) refers to _printf_x.o(.ARM.Collect$$_printf_percent$$0000000C) for _printf_x
    lcd.o(i.lcd_init) refers to _printf_hex_int.o(.text) for _printf_longlong_hex
    lcd.o(i.lcd_init) refers to sys.o(i.sys_gpio_set) for sys_gpio_set
    lcd.o(i.lcd_init) refers to sys.o(i.sys_gpio_af_set) for sys_gpio_af_set
    lcd.o(i.lcd_init) refers to lcd.o(i.lcd_opt_delay) for lcd_opt_delay
    lcd.o(i.lcd_init) refers to lcd.o(i.lcd_wr_regno) for lcd_wr_regno
    lcd.o(i.lcd_init) refers to lcd.o(i.lcd_rd_data) for lcd_rd_data
    lcd.o(i.lcd_init) refers to lcd.o(i.lcd_write_reg) for lcd_write_reg
    lcd.o(i.lcd_init) refers to delay.o(i.delay_ms) for delay_ms
    lcd.o(i.lcd_init) refers to lcd.o(.bss) for lcddev
    lcd.o(i.lcd_init) refers to noretval__2printf.o(.text) for __2printf
    lcd.o(i.lcd_init) refers to lcd.o(i.lcd_ex_st7789_reginit) for lcd_ex_st7789_reginit
    lcd.o(i.lcd_init) refers to lcd.o(i.lcd_ex_ili9341_reginit) for lcd_ex_ili9341_reginit
    lcd.o(i.lcd_init) refers to lcd.o(i.lcd_ex_nt35310_reginit) for lcd_ex_nt35310_reginit
    lcd.o(i.lcd_init) refers to lcd.o(i.lcd_ex_st7796_reginit) for lcd_ex_st7796_reginit
    lcd.o(i.lcd_init) refers to lcd.o(i.lcd_ex_nt35510_reginit) for lcd_ex_nt35510_reginit
    lcd.o(i.lcd_init) refers to lcd.o(i.lcd_ex_ili9806_reginit) for lcd_ex_ili9806_reginit
    lcd.o(i.lcd_init) refers to lcd.o(i.lcd_ex_ssd1963_reginit) for lcd_ex_ssd1963_reginit
    lcd.o(i.lcd_init) refers to lcd.o(i.lcd_ssd_backlight_set) for lcd_ssd_backlight_set
    lcd.o(i.lcd_init) refers to lcd.o(i.lcd_display_dir) for lcd_display_dir
    lcd.o(i.lcd_init) refers to sys.o(i.sys_gpio_pin_set) for sys_gpio_pin_set
    lcd.o(i.lcd_init) refers to lcd.o(i.lcd_clear) for lcd_clear
    lcd.o(i.lcd_rd_data) refers to lcd.o(i.lcd_opt_delay) for lcd_opt_delay
    lcd.o(i.lcd_read_point) refers to lcd.o(i.lcd_set_cursor) for lcd_set_cursor
    lcd.o(i.lcd_read_point) refers to lcd.o(i.lcd_wr_regno) for lcd_wr_regno
    lcd.o(i.lcd_read_point) refers to lcd.o(i.lcd_rd_data) for lcd_rd_data
    lcd.o(i.lcd_read_point) refers to lcd.o(.bss) for lcddev
    lcd.o(i.lcd_scan_dir) refers to lcd.o(i.lcd_write_reg) for lcd_write_reg
    lcd.o(i.lcd_scan_dir) refers to lcd.o(i.lcd_wr_regno) for lcd_wr_regno
    lcd.o(i.lcd_scan_dir) refers to lcd.o(i.lcd_wr_data) for lcd_wr_data
    lcd.o(i.lcd_scan_dir) refers to lcd.o(.bss) for lcddev
    lcd.o(i.lcd_set_cursor) refers to lcd.o(i.lcd_wr_regno) for lcd_wr_regno
    lcd.o(i.lcd_set_cursor) refers to lcd.o(i.lcd_wr_data) for lcd_wr_data
    lcd.o(i.lcd_set_cursor) refers to lcd.o(.bss) for lcddev
    lcd.o(i.lcd_set_window) refers to lcd.o(i.lcd_wr_regno) for lcd_wr_regno
    lcd.o(i.lcd_set_window) refers to lcd.o(i.lcd_wr_data) for lcd_wr_data
    lcd.o(i.lcd_set_window) refers to lcd.o(.bss) for lcddev
    lcd.o(i.lcd_show_char) refers to lcd.o(i.lcd_draw_point) for lcd_draw_point
    lcd.o(i.lcd_show_char) refers to lcd.o(.constdata) for asc2_1206
    lcd.o(i.lcd_show_char) refers to lcd.o(.data) for g_back_color
    lcd.o(i.lcd_show_char) refers to lcd.o(.bss) for lcddev
    lcd.o(i.lcd_show_num) refers to lcd.o(i.lcd_pow) for lcd_pow
    lcd.o(i.lcd_show_num) refers to lcd.o(i.lcd_show_char) for lcd_show_char
    lcd.o(i.lcd_show_string) refers to lcd.o(i.lcd_show_char) for lcd_show_char
    lcd.o(i.lcd_show_xnum) refers to lcd.o(i.lcd_pow) for lcd_pow
    lcd.o(i.lcd_show_xnum) refers to lcd.o(i.lcd_show_char) for lcd_show_char
    lcd.o(i.lcd_ssd_backlight_set) refers to lcd.o(i.lcd_wr_regno) for lcd_wr_regno
    lcd.o(i.lcd_ssd_backlight_set) refers to lcd.o(i.lcd_wr_data) for lcd_wr_data
    lcd.o(i.lcd_ssd_backlight_set) refers to dflt_clz.o(x$fpl$dfltu) for __aeabi_ui2d
    lcd.o(i.lcd_ssd_backlight_set) refers to dmul.o(x$fpl$dmul) for __aeabi_dmul
    lcd.o(i.lcd_ssd_backlight_set) refers to dfixu.o(x$fpl$dfixu) for __aeabi_d2uiz
    lcd.o(i.lcd_write_ram_prepare) refers to lcd.o(.bss) for lcddev
    key.o(i.key_init) refers to sys.o(i.sys_gpio_set) for sys_gpio_set
    key.o(i.key_scan) refers to sys.o(i.sys_gpio_pin_get) for sys_gpio_pin_get
    key.o(i.key_scan) refers to delay.o(i.delay_ms) for delay_ms
    key.o(i.key_scan) refers to key.o(.data) for key_up
    sram.o(i.sram_init) refers to sys.o(i.sys_gpio_set) for sys_gpio_set
    sram.o(i.sram_init) refers to sys.o(i.sys_gpio_af_set) for sys_gpio_af_set
    sram.o(i.sram_test_read) refers to sram.o(i.sram_read) for sram_read
    sram.o(i.sram_test_write) refers to sram.o(i.sram_write) for sram_write
    sdio_sdcard.o(i.sd_init) refers to sys.o(i.sys_gpio_set) for sys_gpio_set
    sdio_sdcard.o(i.sd_init) refers to sys.o(i.sys_gpio_af_set) for sys_gpio_af_set
    sdio_sdcard.o(i.sd_init) refers to sdio_sdcard.o(i.sdmmc_power_on) for sdmmc_power_on
    sdio_sdcard.o(i.sd_init) refers to sdio_sdcard.o(i.sdmmc_initialize_cards) for sdmmc_initialize_cards
    sdio_sdcard.o(i.sd_init) refers to sdio_sdcard.o(i.sdmmc_get_card_info) for sdmmc_get_card_info
    sdio_sdcard.o(i.sd_init) refers to sdio_sdcard.o(i.sdmmc_select_deselect) for sdmmc_select_deselect
    sdio_sdcard.o(i.sd_init) refers to sdio_sdcard.o(i.sdmmc_wide_bus_operation) for sdmmc_wide_bus_operation
    sdio_sdcard.o(i.sd_init) refers to sdio_sdcard.o(i.sdmmc_clock_set) for sdmmc_clock_set
    sdio_sdcard.o(i.sd_init) refers to sdio_sdcard.o(.bss) for g_sd_card_info
    sdio_sdcard.o(i.sd_init) refers to sdio_sdcard.o(.data) for CardType
    sdio_sdcard.o(i.sd_read_disk) refers to sdio_sdcard.o(i.sdmmc_read_blocks) for sdmmc_read_blocks
    sdio_sdcard.o(i.sd_read_disk) refers to sdio_sdcard.o(.data) for CardType
    sdio_sdcard.o(i.sd_write_disk) refers to sdio_sdcard.o(i.sdmmc_write_blocks) for sdmmc_write_blocks
    sdio_sdcard.o(i.sd_write_disk) refers to sdio_sdcard.o(.data) for CardType
    sdio_sdcard.o(i.sdmmc_find_scr) refers to sdio_sdcard.o(i.sdmmc_send_cmd) for sdmmc_send_cmd
    sdio_sdcard.o(i.sdmmc_find_scr) refers to sdio_sdcard.o(i.sdmmc_cmd_resp1_error) for sdmmc_cmd_resp1_error
    sdio_sdcard.o(i.sdmmc_find_scr) refers to sdio_sdcard.o(i.sdmmc_send_data_cfg) for sdmmc_send_data_cfg
    sdio_sdcard.o(i.sdmmc_get_card_info) refers to sdio_sdcard.o(.data) for CardType
    sdio_sdcard.o(i.sdmmc_get_card_info) refers to sdio_sdcard.o(.bss) for CSD_Tab
    sdio_sdcard.o(i.sdmmc_get_status) refers to sdio_sdcard.o(i.sdmmc_send_status) for sdmmc_send_status
    sdio_sdcard.o(i.sdmmc_initialize_cards) refers to sdio_sdcard.o(i.sdmmc_send_cmd) for sdmmc_send_cmd
    sdio_sdcard.o(i.sdmmc_initialize_cards) refers to sdio_sdcard.o(i.sdmmc_cmd_resp2_error) for sdmmc_cmd_resp2_error
    sdio_sdcard.o(i.sdmmc_initialize_cards) refers to sdio_sdcard.o(i.sdmmc_cmd_resp6_error) for sdmmc_cmd_resp6_error
    sdio_sdcard.o(i.sdmmc_initialize_cards) refers to sdio_sdcard.o(.data) for CardType
    sdio_sdcard.o(i.sdmmc_initialize_cards) refers to sdio_sdcard.o(.bss) for CID_Tab
    sdio_sdcard.o(i.sdmmc_is_card_programming) refers to sdio_sdcard.o(i.sdmmc_send_cmd) for sdmmc_send_cmd
    sdio_sdcard.o(i.sdmmc_is_card_programming) refers to sdio_sdcard.o(.data) for RCA
    sdio_sdcard.o(i.sdmmc_power_on) refers to sdio_sdcard.o(i.sdmmc_clock_set) for sdmmc_clock_set
    sdio_sdcard.o(i.sdmmc_power_on) refers to sdio_sdcard.o(i.sdmmc_send_cmd) for sdmmc_send_cmd
    sdio_sdcard.o(i.sdmmc_power_on) refers to sdio_sdcard.o(i.sdmmc_cmd_error) for sdmmc_cmd_error
    sdio_sdcard.o(i.sdmmc_power_on) refers to sdio_sdcard.o(i.sdmmc_cmd_resp7_error) for sdmmc_cmd_resp7_error
    sdio_sdcard.o(i.sdmmc_power_on) refers to sdio_sdcard.o(i.sdmmc_cmd_resp1_error) for sdmmc_cmd_resp1_error
    sdio_sdcard.o(i.sdmmc_power_on) refers to sdio_sdcard.o(i.sdmmc_cmd_resp3_error) for sdmmc_cmd_resp3_error
    sdio_sdcard.o(i.sdmmc_power_on) refers to sdio_sdcard.o(.data) for CardType
    sdio_sdcard.o(i.sdmmc_read_blocks) refers to sdio_sdcard.o(i.sdmmc_send_cmd) for sdmmc_send_cmd
    sdio_sdcard.o(i.sdmmc_read_blocks) refers to sdio_sdcard.o(i.sdmmc_cmd_resp1_error) for sdmmc_cmd_resp1_error
    sdio_sdcard.o(i.sdmmc_read_blocks) refers to sdio_sdcard.o(i.sdmmc_send_data_cfg) for sdmmc_send_data_cfg
    sdio_sdcard.o(i.sdmmc_read_blocks) refers to noretval__2printf.o(.text) for __2printf
    sdio_sdcard.o(i.sdmmc_read_blocks) refers to sys.o(i.sys_intx_disable) for sys_intx_disable
    sdio_sdcard.o(i.sdmmc_read_blocks) refers to sys.o(i.sys_intx_enable) for sys_intx_enable
    sdio_sdcard.o(i.sdmmc_read_blocks) refers to sdio_sdcard.o(.data) for CardType
    sdio_sdcard.o(i.sdmmc_select_deselect) refers to sdio_sdcard.o(i.sdmmc_send_cmd) for sdmmc_send_cmd
    sdio_sdcard.o(i.sdmmc_select_deselect) refers to sdio_sdcard.o(i.sdmmc_cmd_resp1_error) for sdmmc_cmd_resp1_error
    sdio_sdcard.o(i.sdmmc_send_status) refers to sdio_sdcard.o(i.sdmmc_send_cmd) for sdmmc_send_cmd
    sdio_sdcard.o(i.sdmmc_send_status) refers to sdio_sdcard.o(i.sdmmc_cmd_resp1_error) for sdmmc_cmd_resp1_error
    sdio_sdcard.o(i.sdmmc_send_status) refers to sdio_sdcard.o(.data) for RCA
    sdio_sdcard.o(i.sdmmc_wide_bus_enable) refers to sdio_sdcard.o(i.sdmmc_find_scr) for sdmmc_find_scr
    sdio_sdcard.o(i.sdmmc_wide_bus_enable) refers to delay.o(i.delay_ms) for delay_ms
    sdio_sdcard.o(i.sdmmc_wide_bus_enable) refers to sdio_sdcard.o(i.sdmmc_send_cmd) for sdmmc_send_cmd
    sdio_sdcard.o(i.sdmmc_wide_bus_enable) refers to sdio_sdcard.o(i.sdmmc_cmd_resp1_error) for sdmmc_cmd_resp1_error
    sdio_sdcard.o(i.sdmmc_wide_bus_enable) refers to sdio_sdcard.o(.data) for RCA
    sdio_sdcard.o(i.sdmmc_wide_bus_operation) refers to sdio_sdcard.o(i.sdmmc_wide_bus_enable) for sdmmc_wide_bus_enable
    sdio_sdcard.o(i.sdmmc_wide_bus_operation) refers to sdio_sdcard.o(.data) for CardType
    sdio_sdcard.o(i.sdmmc_write_blocks) refers to sdio_sdcard.o(i.sdmmc_send_cmd) for sdmmc_send_cmd
    sdio_sdcard.o(i.sdmmc_write_blocks) refers to sdio_sdcard.o(i.sdmmc_cmd_resp1_error) for sdmmc_cmd_resp1_error
    sdio_sdcard.o(i.sdmmc_write_blocks) refers to sdio_sdcard.o(i.sdmmc_send_data_cfg) for sdmmc_send_data_cfg
    sdio_sdcard.o(i.sdmmc_write_blocks) refers to sys.o(i.sys_intx_disable) for sys_intx_disable
    sdio_sdcard.o(i.sdmmc_write_blocks) refers to sys.o(i.sys_intx_enable) for sys_intx_enable
    sdio_sdcard.o(i.sdmmc_write_blocks) refers to sdio_sdcard.o(i.sdmmc_is_card_programming) for sdmmc_is_card_programming
    sdio_sdcard.o(i.sdmmc_write_blocks) refers to sdio_sdcard.o(.data) for CardType
    spi.o(i.spi1_init) refers to sys.o(i.sys_gpio_set) for sys_gpio_set
    spi.o(i.spi1_init) refers to sys.o(i.sys_gpio_af_set) for sys_gpio_af_set
    spi.o(i.spi1_init) refers to spi.o(i.spi1_read_write_byte) for spi1_read_write_byte
    norflash.o(i.norflash_erase_chip) refers to norflash.o(i.norflash_write_enable) for norflash_write_enable
    norflash.o(i.norflash_erase_chip) refers to norflash.o(i.norflash_wait_busy) for norflash_wait_busy
    norflash.o(i.norflash_erase_chip) refers to sys.o(i.sys_gpio_pin_set) for sys_gpio_pin_set
    norflash.o(i.norflash_erase_chip) refers to spi.o(i.spi1_read_write_byte) for spi1_read_write_byte
    norflash.o(i.norflash_erase_sector) refers to norflash.o(i.norflash_write_enable) for norflash_write_enable
    norflash.o(i.norflash_erase_sector) refers to norflash.o(i.norflash_wait_busy) for norflash_wait_busy
    norflash.o(i.norflash_erase_sector) refers to sys.o(i.sys_gpio_pin_set) for sys_gpio_pin_set
    norflash.o(i.norflash_erase_sector) refers to spi.o(i.spi1_read_write_byte) for spi1_read_write_byte
    norflash.o(i.norflash_erase_sector) refers to norflash.o(i.norflash_send_address) for norflash_send_address
    norflash.o(i.norflash_init) refers to sys.o(i.sys_gpio_set) for sys_gpio_set
    norflash.o(i.norflash_init) refers to sys.o(i.sys_gpio_pin_set) for sys_gpio_pin_set
    norflash.o(i.norflash_init) refers to spi.o(i.spi1_init) for spi1_init
    norflash.o(i.norflash_init) refers to spi.o(i.spi1_set_speed) for spi1_set_speed
    norflash.o(i.norflash_init) refers to norflash.o(i.norflash_read_id) for norflash_read_id
    norflash.o(i.norflash_init) refers to norflash.o(i.norflash_read_sr) for norflash_read_sr
    norflash.o(i.norflash_init) refers to norflash.o(i.norflash_write_enable) for norflash_write_enable
    norflash.o(i.norflash_init) refers to norflash.o(i.norflash_write_sr) for norflash_write_sr
    norflash.o(i.norflash_init) refers to spi.o(i.spi1_read_write_byte) for spi1_read_write_byte
    norflash.o(i.norflash_init) refers to norflash.o(.data) for g_norflash_type
    norflash.o(i.norflash_read) refers to sys.o(i.sys_gpio_pin_set) for sys_gpio_pin_set
    norflash.o(i.norflash_read) refers to spi.o(i.spi1_read_write_byte) for spi1_read_write_byte
    norflash.o(i.norflash_read) refers to norflash.o(i.norflash_send_address) for norflash_send_address
    norflash.o(i.norflash_read_id) refers to sys.o(i.sys_gpio_pin_set) for sys_gpio_pin_set
    norflash.o(i.norflash_read_id) refers to spi.o(i.spi1_read_write_byte) for spi1_read_write_byte
    norflash.o(i.norflash_read_sr) refers to sys.o(i.sys_gpio_pin_set) for sys_gpio_pin_set
    norflash.o(i.norflash_read_sr) refers to spi.o(i.spi1_read_write_byte) for spi1_read_write_byte
    norflash.o(i.norflash_send_address) refers to spi.o(i.spi1_read_write_byte) for spi1_read_write_byte
    norflash.o(i.norflash_send_address) refers to norflash.o(.data) for g_norflash_type
    norflash.o(i.norflash_wait_busy) refers to norflash.o(i.norflash_read_sr) for norflash_read_sr
    norflash.o(i.norflash_write) refers to norflash.o(i.norflash_read) for norflash_read
    norflash.o(i.norflash_write) refers to norflash.o(i.norflash_erase_sector) for norflash_erase_sector
    norflash.o(i.norflash_write) refers to norflash.o(i.norflash_write_nocheck) for norflash_write_nocheck
    norflash.o(i.norflash_write) refers to norflash.o(.bss) for g_norflash_buf
    norflash.o(i.norflash_write_enable) refers to sys.o(i.sys_gpio_pin_set) for sys_gpio_pin_set
    norflash.o(i.norflash_write_enable) refers to spi.o(i.spi1_read_write_byte) for spi1_read_write_byte
    norflash.o(i.norflash_write_nocheck) refers to norflash.o(i.norflash_write_page) for norflash_write_page
    norflash.o(i.norflash_write_page) refers to norflash.o(i.norflash_write_enable) for norflash_write_enable
    norflash.o(i.norflash_write_page) refers to sys.o(i.sys_gpio_pin_set) for sys_gpio_pin_set
    norflash.o(i.norflash_write_page) refers to spi.o(i.spi1_read_write_byte) for spi1_read_write_byte
    norflash.o(i.norflash_write_page) refers to norflash.o(i.norflash_send_address) for norflash_send_address
    norflash.o(i.norflash_write_page) refers to norflash.o(i.norflash_wait_busy) for norflash_wait_busy
    norflash.o(i.norflash_write_sr) refers to sys.o(i.sys_gpio_pin_set) for sys_gpio_pin_set
    norflash.o(i.norflash_write_sr) refers to spi.o(i.spi1_read_write_byte) for spi1_read_write_byte
    beep.o(i.beep_init) refers to sys.o(i.sys_gpio_set) for sys_gpio_set
    beep.o(i.beep_init) refers to sys.o(i.sys_gpio_pin_set) for sys_gpio_pin_set
    btim.o(i.TIM6_DAC_IRQHandler) refers to _printf_percent.o(.ARM.Collect$$_printf_percent$$00000000) for _printf_percent
    btim.o(i.TIM6_DAC_IRQHandler) refers to _printf_d.o(.ARM.Collect$$_printf_percent$$00000009) for _printf_d
    btim.o(i.TIM6_DAC_IRQHandler) refers to _printf_dec.o(.text) for _printf_int_dec
    btim.o(i.TIM6_DAC_IRQHandler) refers to noretval__2printf.o(.text) for __2printf
    btim.o(i.TIM6_DAC_IRQHandler) refers to dcmi.o(.data) for g_ov_frame
    btim.o(i.btim_timx_int_init) refers to sys.o(i.sys_nvic_init) for sys_nvic_init
    usart2.o(i.USART2_SendString) refers to usart2.o(i.USART2_SendData) for USART2_SendData
    usart2.o(i.USART2_UX_IRQHandler) refers to usart2.o(.data) for g_usart2_rx_sta
    usart2.o(i.USART2_UX_IRQHandler) refers to usart2.o(.bss) for g_usart2_rx_buf
    usart2.o(i.usart2_init) refers to sys.o(i.sys_gpio_set) for sys_gpio_set
    usart2.o(i.usart2_init) refers to sys.o(i.sys_gpio_af_set) for sys_gpio_af_set
    ov2640.o(i.ov2640_auto_exposure) refers to ov2640.o(i.ov2640_write_reg) for ov2640_write_reg
    ov2640.o(i.ov2640_auto_exposure) refers to ov2640.o(.constdata) for OV2640_AUTOEXPOSURE_LEVEL
    ov2640.o(i.ov2640_brightness) refers to ov2640.o(i.ov2640_write_reg) for ov2640_write_reg
    ov2640.o(i.ov2640_color_bar) refers to ov2640.o(i.ov2640_write_reg) for ov2640_write_reg
    ov2640.o(i.ov2640_color_bar) refers to ov2640.o(i.ov2640_read_reg) for ov2640_read_reg
    ov2640.o(i.ov2640_color_saturation) refers to ov2640.o(i.ov2640_write_reg) for ov2640_write_reg
    ov2640.o(i.ov2640_contrast) refers to ov2640.o(i.ov2640_write_reg) for ov2640_write_reg
    ov2640.o(i.ov2640_image_win_set) refers to ov2640.o(i.ov2640_write_reg) for ov2640_write_reg
    ov2640.o(i.ov2640_imagesize_set) refers to ov2640.o(i.ov2640_write_reg) for ov2640_write_reg
    ov2640.o(i.ov2640_init) refers to _printf_percent.o(.ARM.Collect$$_printf_percent$$00000000) for _printf_percent
    ov2640.o(i.ov2640_init) refers to _printf_d.o(.ARM.Collect$$_printf_percent$$00000009) for _printf_d
    ov2640.o(i.ov2640_init) refers to _printf_dec.o(.text) for _printf_int_dec
    ov2640.o(i.ov2640_init) refers to sys.o(i.sys_gpio_set) for sys_gpio_set
    ov2640.o(i.ov2640_init) refers to sys.o(i.sys_gpio_pin_set) for sys_gpio_pin_set
    ov2640.o(i.ov2640_init) refers to delay.o(i.delay_ms) for delay_ms
    ov2640.o(i.ov2640_init) refers to sccb.o(i.sccb_init) for sccb_init
    ov2640.o(i.ov2640_init) refers to ov2640.o(i.ov2640_write_reg) for ov2640_write_reg
    ov2640.o(i.ov2640_init) refers to ov2640.o(i.ov2640_read_reg) for ov2640_read_reg
    ov2640.o(i.ov2640_init) refers to noretval__2printf.o(.text) for __2printf
    ov2640.o(i.ov2640_init) refers to ov2640.o(.constdata) for ov2640_uxga_init_reg_tbl
    ov2640.o(i.ov2640_jpeg_mode) refers to ov2640.o(i.ov2640_write_reg) for ov2640_write_reg
    ov2640.o(i.ov2640_jpeg_mode) refers to ov2640.o(.constdata) for ov2640_yuv422_reg_tbl
    ov2640.o(i.ov2640_light_mode) refers to ov2640.o(i.ov2640_write_reg) for ov2640_write_reg
    ov2640.o(i.ov2640_outsize_set) refers to ov2640.o(i.ov2640_write_reg) for ov2640_write_reg
    ov2640.o(i.ov2640_read_reg) refers to sccb.o(i.sccb_start) for sccb_start
    ov2640.o(i.ov2640_read_reg) refers to sccb.o(i.sccb_send_byte) for sccb_send_byte
    ov2640.o(i.ov2640_read_reg) refers to delay.o(i.delay_us) for delay_us
    ov2640.o(i.ov2640_read_reg) refers to sccb.o(i.sccb_stop) for sccb_stop
    ov2640.o(i.ov2640_read_reg) refers to sccb.o(i.sccb_read_byte) for sccb_read_byte
    ov2640.o(i.ov2640_read_reg) refers to sccb.o(i.sccb_nack) for sccb_nack
    ov2640.o(i.ov2640_rgb565_mode) refers to ov2640.o(i.ov2640_write_reg) for ov2640_write_reg
    ov2640.o(i.ov2640_rgb565_mode) refers to ov2640.o(.constdata) for ov2640_rgb565_reg_tbl
    ov2640.o(i.ov2640_special_effects) refers to ov2640.o(i.ov2640_write_reg) for ov2640_write_reg
    ov2640.o(i.ov2640_window_set) refers to ov2640.o(i.ov2640_write_reg) for ov2640_write_reg
    ov2640.o(i.ov2640_window_set) refers to ov2640.o(i.ov2640_read_reg) for ov2640_read_reg
    ov2640.o(i.ov2640_write_reg) refers to sccb.o(i.sccb_start) for sccb_start
    ov2640.o(i.ov2640_write_reg) refers to delay.o(i.delay_us) for delay_us
    ov2640.o(i.ov2640_write_reg) refers to sccb.o(i.sccb_send_byte) for sccb_send_byte
    ov2640.o(i.ov2640_write_reg) refers to sccb.o(i.sccb_stop) for sccb_stop
    sccb.o(i.sccb_delay) refers to delay.o(i.delay_us) for delay_us
    sccb.o(i.sccb_init) refers to sys.o(i.sys_gpio_set) for sys_gpio_set
    sccb.o(i.sccb_init) refers to sccb.o(i.sccb_stop) for sccb_stop
    sccb.o(i.sccb_nack) refers to sys.o(i.sys_gpio_pin_set) for sys_gpio_pin_set
    sccb.o(i.sccb_nack) refers to sccb.o(i.sccb_delay) for sccb_delay
    sccb.o(i.sccb_read_byte) refers to sys.o(i.sys_gpio_pin_set) for sys_gpio_pin_set
    sccb.o(i.sccb_read_byte) refers to sccb.o(i.sccb_delay) for sccb_delay
    sccb.o(i.sccb_read_byte) refers to sys.o(i.sys_gpio_pin_get) for sys_gpio_pin_get
    sccb.o(i.sccb_send_byte) refers to sys.o(i.sys_gpio_pin_set) for sys_gpio_pin_set
    sccb.o(i.sccb_send_byte) refers to sccb.o(i.sccb_delay) for sccb_delay
    sccb.o(i.sccb_send_byte) refers to sys.o(i.sys_gpio_pin_get) for sys_gpio_pin_get
    sccb.o(i.sccb_start) refers to sys.o(i.sys_gpio_pin_set) for sys_gpio_pin_set
    sccb.o(i.sccb_start) refers to sccb.o(i.sccb_delay) for sccb_delay
    sccb.o(i.sccb_stop) refers to sys.o(i.sys_gpio_pin_set) for sys_gpio_pin_set
    sccb.o(i.sccb_stop) refers to sccb.o(i.sccb_delay) for sccb_delay
    dcmi.o(i.DCMI_IRQHandler) refers to main.o(i.jpeg_data_process) for jpeg_data_process
    dcmi.o(i.DCMI_IRQHandler) refers to dcmi.o(.data) for g_ov_frame
    dcmi.o(i.DMA2_Stream1_IRQHandler) refers to dcmi.o(.data) for dcmi_rx_callback
    dcmi.o(i.dcmi_dma_init) refers to sys.o(i.sys_nvic_init) for sys_nvic_init
    dcmi.o(i.dcmi_init) refers to sys.o(i.sys_gpio_set) for sys_gpio_set
    dcmi.o(i.dcmi_init) refers to sys.o(i.sys_gpio_af_set) for sys_gpio_af_set
    dcmi.o(i.dcmi_init) refers to sys.o(i.sys_nvic_init) for sys_nvic_init
    dcmi.o(i.dcmi_set_window) refers to dcmi.o(i.dcmi_stop) for dcmi_stop
    dcmi.o(i.dcmi_set_window) refers to lcd.o(i.lcd_clear) for lcd_clear
    dcmi.o(i.dcmi_set_window) refers to lcd.o(i.lcd_set_window) for lcd_set_window
    dcmi.o(i.dcmi_set_window) refers to ov2640.o(i.ov2640_outsize_set) for ov2640_outsize_set
    dcmi.o(i.dcmi_set_window) refers to lcd.o(i.lcd_set_cursor) for lcd_set_cursor
    dcmi.o(i.dcmi_set_window) refers to lcd.o(i.lcd_write_ram_prepare) for lcd_write_ram_prepare
    dcmi.o(i.dcmi_start) refers to lcd.o(i.lcd_set_cursor) for lcd_set_cursor
    dcmi.o(i.dcmi_start) refers to lcd.o(i.lcd_write_ram_prepare) for lcd_write_ram_prepare
    pwmdac.o(i.open_door) refers to delay.o(i.delay_ms) for delay_ms
    pwmdac.o(i.pwmdac_init) refers to sys.o(i.sys_gpio_set) for sys_gpio_set
    pwmdac.o(i.pwmdac_init) refers to sys.o(i.sys_gpio_af_set) for sys_gpio_af_set
    pwmdac.o(i.pwmdac_set_voltage) refers to dflt_clz.o(x$fpl$dfltu) for __aeabi_ui2d
    pwmdac.o(i.pwmdac_set_voltage) refers to ddiv.o(x$fpl$ddiv) for __aeabi_ddiv
    pwmdac.o(i.pwmdac_set_voltage) refers to dmul.o(x$fpl$dmul) for __aeabi_dmul
    pwmdac.o(i.pwmdac_set_voltage) refers to dfixu.o(x$fpl$dfixu) for __aeabi_d2uiz
    usmart.o(i.usmart_cmd_rec) refers to usmart_str.o(i.usmart_get_fname) for usmart_get_fname
    usmart.o(i.usmart_cmd_rec) refers to usmart_str.o(i.usmart_strcmp) for usmart_strcmp
    usmart.o(i.usmart_cmd_rec) refers to usmart_str.o(i.usmart_get_fparam) for usmart_get_fparam
    usmart.o(i.usmart_cmd_rec) refers to usmart_config.o(.data) for usmart_dev
    usmart.o(i.usmart_exe) refers to _printf_percent.o(.ARM.Collect$$_printf_percent$$00000000) for _printf_percent
    usmart.o(i.usmart_exe) refers to _printf_s.o(.ARM.Collect$$_printf_percent$$00000014) for _printf_s
    usmart.o(i.usmart_exe) refers to _printf_str.o(.text) for _printf_str
    usmart.o(i.usmart_exe) refers to _printf_c.o(.ARM.Collect$$_printf_percent$$00000013) for _printf_c
    usmart.o(i.usmart_exe) refers to _printf_d.o(.ARM.Collect$$_printf_percent$$00000009) for _printf_d
    usmart.o(i.usmart_exe) refers to _printf_dec.o(.text) for _printf_int_dec
    usmart.o(i.usmart_exe) refers to _printf_x.o(.ARM.Collect$$_printf_percent$$0000000C) for _printf_x
    usmart.o(i.usmart_exe) refers to _printf_hex_int.o(.text) for _printf_longlong_hex
    usmart.o(i.usmart_exe) refers to _printf_u.o(.ARM.Collect$$_printf_percent$$0000000A) for _printf_u
    usmart.o(i.usmart_exe) refers to _printf_pad.o(.text) for _printf_pre_padding
    usmart.o(i.usmart_exe) refers to usmart_str.o(i.usmart_get_fname) for usmart_get_fname
    usmart.o(i.usmart_exe) refers to noretval__2printf.o(.text) for __2printf
    usmart.o(i.usmart_exe) refers to usmart_str.o(i.usmart_get_parmpos) for usmart_get_parmpos
    usmart.o(i.usmart_exe) refers to usmart_port.o(i.usmart_timx_reset_time) for usmart_timx_reset_time
    usmart.o(i.usmart_exe) refers to usmart_port.o(i.usmart_timx_get_time) for usmart_timx_get_time
    usmart.o(i.usmart_exe) refers to usmart_config.o(.data) for usmart_dev
    usmart.o(i.usmart_init) refers to usmart_port.o(i.usmart_timx_init) for usmart_timx_init
    usmart.o(i.usmart_init) refers to usmart_config.o(.data) for usmart_dev
    usmart.o(i.usmart_scan) refers to usmart_port.o(i.usmart_get_input_string) for usmart_get_input_string
    usmart.o(i.usmart_scan) refers to usmart.o(i.usmart_sys_cmd_exe) for usmart_sys_cmd_exe
    usmart.o(i.usmart_scan) refers to noretval__2printf.o(.text) for __2printf
    usmart.o(i.usmart_scan) refers to usmart_config.o(.data) for usmart_dev
    usmart.o(i.usmart_sys_cmd_exe) refers to _printf_percent.o(.ARM.Collect$$_printf_percent$$00000000) for _printf_percent
    usmart.o(i.usmart_sys_cmd_exe) refers to _printf_s.o(.ARM.Collect$$_printf_percent$$00000014) for _printf_s
    usmart.o(i.usmart_sys_cmd_exe) refers to _printf_str.o(.text) for _printf_str
    usmart.o(i.usmart_sys_cmd_exe) refers to _printf_pad.o(.text) for _printf_pre_padding
    usmart.o(i.usmart_sys_cmd_exe) refers to _printf_x.o(.ARM.Collect$$_printf_percent$$0000000C) for _printf_x
    usmart.o(i.usmart_sys_cmd_exe) refers to _printf_hex_int.o(.text) for _printf_longlong_hex
    usmart.o(i.usmart_sys_cmd_exe) refers to _printf_u.o(.ARM.Collect$$_printf_percent$$0000000A) for _printf_u
    usmart.o(i.usmart_sys_cmd_exe) refers to _printf_dec.o(.text) for _printf_int_dec
    usmart.o(i.usmart_sys_cmd_exe) refers to usmart_str.o(i.usmart_get_cmdname) for usmart_get_cmdname
    usmart.o(i.usmart_sys_cmd_exe) refers to usmart_str.o(i.usmart_strcmp) for usmart_strcmp
    usmart.o(i.usmart_sys_cmd_exe) refers to noretval__2printf.o(.text) for __2printf
    usmart.o(i.usmart_sys_cmd_exe) refers to usmart.o(.data) for sys_cmd_tab
    usmart.o(i.usmart_sys_cmd_exe) refers to usmart_config.o(.data) for usmart_dev
    usmart.o(i.usmart_sys_cmd_exe) refers to usmart_str.o(i.usmart_get_fname) for usmart_get_fname
    usmart.o(i.usmart_sys_cmd_exe) refers to usmart_str.o(i.usmart_get_aparm) for usmart_get_aparm
    usmart.o(i.usmart_sys_cmd_exe) refers to usmart_str.o(i.usmart_str2num) for usmart_str2num
    usmart.o(.data) refers to usmart.o(.conststring) for .conststring
    usmart_config.o(.data) refers to usmart.o(i.read_addr) for read_addr
    usmart_config.o(.data) refers to usmart_config.o(.conststring) for .conststring
    usmart_config.o(.data) refers to usmart.o(i.write_addr) for write_addr
    usmart_config.o(.data) refers to delay.o(i.delay_ms) for delay_ms
    usmart_config.o(.data) refers to delay.o(i.delay_us) for delay_us
    usmart_config.o(.data) refers to ov2640.o(i.ov2640_read_reg) for ov2640_read_reg
    usmart_config.o(.data) refers to ov2640.o(i.ov2640_write_reg) for ov2640_write_reg
    usmart_config.o(.data) refers to fattester.o(i.mf_scan_files) for mf_scan_files
    usmart_config.o(.data) refers to piclib.o(i.piclib_ai_load_picfile) for piclib_ai_load_picfile
    usmart_config.o(.data) refers to bmp.o(i.bmp_encode) for bmp_encode
    usmart_config.o(.data) refers to malloc.o(i.my_mem_perused) for my_mem_perused
    usmart_config.o(.data) refers to usmart.o(i.usmart_init) for usmart_init
    usmart_config.o(.data) refers to usmart.o(i.usmart_cmd_rec) for usmart_cmd_rec
    usmart_config.o(.data) refers to usmart.o(i.usmart_exe) for usmart_exe
    usmart_config.o(.data) refers to usmart.o(i.usmart_scan) for usmart_scan
    usmart_port.o(i.TIM4_IRQHandler) refers to usmart_config.o(.data) for usmart_dev
    usmart_port.o(i.usmart_get_input_string) refers to usart.o(.data) for g_usart_rx_sta
    usmart_port.o(i.usmart_get_input_string) refers to usart.o(.bss) for g_usart_rx_buf
    usmart_port.o(i.usmart_timx_get_time) refers to usmart_config.o(.data) for usmart_dev
    usmart_port.o(i.usmart_timx_init) refers to sys.o(i.sys_nvic_init) for sys_nvic_init
    usmart_port.o(i.usmart_timx_reset_time) refers to usmart_config.o(.data) for usmart_dev
    usmart_str.o(i.usmart_get_fname) refers to usmart_str.o(i.usmart_strcmp) for usmart_strcmp
    usmart_str.o(i.usmart_get_fname) refers to usmart_str.o(i.usmart_search_nextc) for usmart_search_nextc
    usmart_str.o(i.usmart_get_fparam) refers to usmart_str.o(i.usmart_get_aparm) for usmart_get_aparm
    usmart_str.o(i.usmart_get_fparam) refers to usmart_str.o(i.usmart_str2num) for usmart_str2num
    usmart_str.o(i.usmart_get_fparam) refers to usmart_str.o(i.usmart_get_parmpos) for usmart_get_parmpos
    usmart_str.o(i.usmart_get_fparam) refers to usmart_str.o(i.usmart_strlen) for usmart_strlen
    usmart_str.o(i.usmart_get_fparam) refers to usmart_str.o(i.usmart_strcopy) for usmart_strcopy
    usmart_str.o(i.usmart_get_fparam) refers to usmart_config.o(.data) for usmart_dev
    usmart_str.o(i.usmart_get_parmpos) refers to usmart_config.o(.data) for usmart_dev
    usmart_str.o(i.usmart_str2num) refers to usmart_str.o(i.usmart_pow) for usmart_pow
    malloc.o(i.my_mem_free) refers to malloc.o(.data) for mallco_dev
    malloc.o(i.my_mem_free) refers to malloc.o(.constdata) for memsize
    malloc.o(i.my_mem_init) refers to malloc.o(i.my_mem_set) for my_mem_set
    malloc.o(i.my_mem_init) refers to malloc.o(.constdata) for memtblsize
    malloc.o(i.my_mem_init) refers to malloc.o(.data) for mallco_dev
    malloc.o(i.my_mem_malloc) refers to malloc.o(.data) for mallco_dev
    malloc.o(i.my_mem_malloc) refers to malloc.o(.constdata) for memblksize
    malloc.o(i.my_mem_perused) refers to malloc.o(.data) for mallco_dev
    malloc.o(i.my_mem_perused) refers to malloc.o(.constdata) for memtblsize
    malloc.o(i.myfree) refers to malloc.o(i.my_mem_free) for my_mem_free
    malloc.o(i.myfree) refers to malloc.o(.data) for mallco_dev
    malloc.o(i.mymalloc) refers to malloc.o(i.my_mem_malloc) for my_mem_malloc
    malloc.o(i.mymalloc) refers to malloc.o(.data) for mallco_dev
    malloc.o(i.myrealloc) refers to malloc.o(i.my_mem_malloc) for my_mem_malloc
    malloc.o(i.myrealloc) refers to malloc.o(i.my_mem_copy) for my_mem_copy
    malloc.o(i.myrealloc) refers to malloc.o(i.myfree) for myfree
    malloc.o(i.myrealloc) refers to malloc.o(.data) for mallco_dev
    malloc.o(.data) refers to malloc.o(i.my_mem_init) for my_mem_init
    malloc.o(.data) refers to malloc.o(i.my_mem_perused) for my_mem_perused
    malloc.o(.data) refers to malloc.o(.bss) for mem1base
    malloc.o(.data) refers to malloc.o(.ARM.__AT_0x10000000) for mem2base
    malloc.o(.data) refers to malloc.o(.ARM.__AT_0x68000000) for mem3base
    malloc.o(.data) refers to malloc.o(.ARM.__AT_0x1000F000) for mem2mapbase
    malloc.o(.data) refers to malloc.o(.ARM.__AT_0x680F0C00) for mem3mapbase
    diskio.o(i.disk_initialize) refers to sdio_sdcard.o(i.sd_init) for sd_init
    diskio.o(i.disk_initialize) refers to norflash.o(i.norflash_init) for norflash_init
    diskio.o(i.disk_ioctl) refers to llsdiv.o(.text) for __aeabi_ldivmod
    diskio.o(i.disk_ioctl) refers to sdio_sdcard.o(.bss) for g_sd_card_info
    diskio.o(i.disk_read) refers to sdio_sdcard.o(i.sd_read_disk) for sd_read_disk
    diskio.o(i.disk_read) refers to sdio_sdcard.o(i.sd_init) for sd_init
    diskio.o(i.disk_read) refers to norflash.o(i.norflash_read) for norflash_read
    diskio.o(i.disk_write) refers to sdio_sdcard.o(i.sd_write_disk) for sd_write_disk
    diskio.o(i.disk_write) refers to sdio_sdcard.o(i.sd_init) for sd_init
    diskio.o(i.disk_write) refers to norflash.o(i.norflash_write) for norflash_write
    ff.o(i.change_bitmap) refers to ff.o(i.move_window) for move_window
    ff.o(i.check_fs) refers to ff.o(i.move_window) for move_window
    ff.o(i.check_fs) refers to ff.o(i.ld_word) for ld_word
    ff.o(i.check_fs) refers to memcmp.o(.text) for memcmp
    ff.o(i.check_fs) refers to ff.o(i.ld_dword) for ld_dword
    ff.o(i.clmt_clust) refers to lludivv7m.o(.text) for __aeabi_uldivmod
    ff.o(i.cmp_lfn) refers to ff.o(i.ld_word) for ld_word
    ff.o(i.cmp_lfn) refers to myffunicode.o(i.ff_wtoupper) for ff_wtoupper
    ff.o(i.cmp_lfn) refers to ff.o(.constdata) for LfnOfs
    ff.o(i.create_chain) refers to ff.o(i.get_fat) for get_fat
    ff.o(i.create_chain) refers to ff.o(i.find_bitmap) for find_bitmap
    ff.o(i.create_chain) refers to ff.o(i.change_bitmap) for change_bitmap
    ff.o(i.create_chain) refers to ff.o(i.fill_last_frag) for fill_last_frag
    ff.o(i.create_chain) refers to ff.o(i.put_fat) for put_fat
    ff.o(i.create_name) refers to ff.o(i.tchar2uni) for tchar2uni
    ff.o(i.create_name) refers to strchr.o(.text) for strchr
    ff.o(i.create_name) refers to aeabi_memset.o(.text) for __aeabi_memset
    ff.o(i.create_name) refers to myffunicode.o(i.ff_wtoupper) for ff_wtoupper
    ff.o(i.create_name) refers to myffunicode.o(i.ff_uni2oem) for ff_uni2oem
    ff.o(i.create_partition) refers to diskio.o(i.disk_ioctl) for disk_ioctl
    ff.o(i.create_partition) refers to rt_memclr.o(.text) for __aeabi_memclr
    ff.o(i.create_partition) refers to ff.o(i.st_dword) for st_dword
    ff.o(i.create_partition) refers to ff.o(i.st_word) for st_word
    ff.o(i.create_partition) refers to diskio.o(i.disk_write) for disk_write
    ff.o(i.create_xdir) refers to rt_memclr.o(.text) for __aeabi_memclr
    ff.o(i.create_xdir) refers to ff.o(i.st_word) for st_word
    ff.o(i.create_xdir) refers to ff.o(i.xname_sum) for xname_sum
    ff.o(i.dbc_1st) refers to ff.o(.constdata) for DbcTbl
    ff.o(i.dbc_2nd) refers to ff.o(.constdata) for DbcTbl
    ff.o(i.dir_alloc) refers to ff.o(i.dir_sdi) for dir_sdi
    ff.o(i.dir_alloc) refers to ff.o(i.move_window) for move_window
    ff.o(i.dir_alloc) refers to ff.o(i.dir_next) for dir_next
    ff.o(i.dir_clear) refers to ff.o(i.sync_window) for sync_window
    ff.o(i.dir_clear) refers to ff.o(i.clst2sect) for clst2sect
    ff.o(i.dir_clear) refers to rt_memclr_w.o(.text) for __aeabi_memclr4
    ff.o(i.dir_clear) refers to ffsystem.o(i.ff_memalloc) for ff_memalloc
    ff.o(i.dir_clear) refers to rt_memclr.o(.text) for __aeabi_memclr
    ff.o(i.dir_clear) refers to diskio.o(i.disk_write) for disk_write
    ff.o(i.dir_clear) refers to ffsystem.o(i.ff_memfree) for ff_memfree
    ff.o(i.dir_find) refers to ff.o(i.dir_sdi) for dir_sdi
    ff.o(i.dir_find) refers to ff.o(i.xname_sum) for xname_sum
    ff.o(i.dir_find) refers to ff.o(i.ld_word) for ld_word
    ff.o(i.dir_find) refers to myffunicode.o(i.ff_wtoupper) for ff_wtoupper
    ff.o(i.dir_find) refers to ff.o(i.dir_read) for dir_read
    ff.o(i.dir_find) refers to ff.o(i.move_window) for move_window
    ff.o(i.dir_find) refers to ff.o(i.cmp_lfn) for cmp_lfn
    ff.o(i.dir_find) refers to ff.o(i.sum_sfn) for sum_sfn
    ff.o(i.dir_find) refers to memcmp.o(.text) for memcmp
    ff.o(i.dir_find) refers to ff.o(i.dir_next) for dir_next
    ff.o(i.dir_next) refers to ff.o(i.get_fat) for get_fat
    ff.o(i.dir_next) refers to ff.o(i.create_chain) for create_chain
    ff.o(i.dir_next) refers to ff.o(i.dir_clear) for dir_clear
    ff.o(i.dir_next) refers to ff.o(i.clst2sect) for clst2sect
    ff.o(i.dir_read) refers to ff.o(i.move_window) for move_window
    ff.o(i.dir_read) refers to ff.o(i.load_xdir) for load_xdir
    ff.o(i.dir_read) refers to ff.o(i.pick_lfn) for pick_lfn
    ff.o(i.dir_read) refers to ff.o(i.sum_sfn) for sum_sfn
    ff.o(i.dir_read) refers to ff.o(i.dir_next) for dir_next
    ff.o(i.dir_register) refers to ff.o(i.dir_alloc) for dir_alloc
    ff.o(i.dir_register) refers to ff.o(i.fill_first_frag) for fill_first_frag
    ff.o(i.dir_register) refers to ff.o(i.fill_last_frag) for fill_last_frag
    ff.o(i.dir_register) refers to ff.o(i.load_obj_xdir) for load_obj_xdir
    ff.o(i.dir_register) refers to ff.o(i.st_qword) for st_qword
    ff.o(i.dir_register) refers to ff.o(i.store_xdir) for store_xdir
    ff.o(i.dir_register) refers to ff.o(i.create_xdir) for create_xdir
    ff.o(i.dir_register) refers to ff.o(i.gen_numname) for gen_numname
    ff.o(i.dir_register) refers to ff.o(i.dir_find) for dir_find
    ff.o(i.dir_register) refers to ff.o(i.dir_sdi) for dir_sdi
    ff.o(i.dir_register) refers to ff.o(i.sum_sfn) for sum_sfn
    ff.o(i.dir_register) refers to ff.o(i.move_window) for move_window
    ff.o(i.dir_register) refers to ff.o(i.put_lfn) for put_lfn
    ff.o(i.dir_register) refers to ff.o(i.dir_next) for dir_next
    ff.o(i.dir_register) refers to rt_memclr.o(.text) for __aeabi_memclr
    ff.o(i.dir_remove) refers to ff.o(i.dir_sdi) for dir_sdi
    ff.o(i.dir_remove) refers to ff.o(i.move_window) for move_window
    ff.o(i.dir_remove) refers to ff.o(i.dir_next) for dir_next
    ff.o(i.dir_sdi) refers to ff.o(i.get_fat) for get_fat
    ff.o(i.dir_sdi) refers to ff.o(i.clst2sect) for clst2sect
    ff.o(i.f_close) refers to ff.o(i.f_sync) for f_sync
    ff.o(i.f_close) refers to ff.o(i.validate) for validate
    ff.o(i.f_closedir) refers to ff.o(i.validate) for validate
    ff.o(i.f_getfree) refers to ff.o(i.mount_volume) for mount_volume
    ff.o(i.f_getfree) refers to ff.o(i.get_fat) for get_fat
    ff.o(i.f_getfree) refers to ff.o(i.move_window) for move_window
    ff.o(i.f_getfree) refers to ff.o(i.ld_word) for ld_word
    ff.o(i.f_getfree) refers to ff.o(i.ld_dword) for ld_dword
    ff.o(i.f_getlabel) refers to ff.o(i.mount_volume) for mount_volume
    ff.o(i.f_getlabel) refers to ff.o(i.dir_sdi) for dir_sdi
    ff.o(i.f_getlabel) refers to ff.o(i.dir_read) for dir_read
    ff.o(i.f_getlabel) refers to ff.o(i.ld_word) for ld_word
    ff.o(i.f_getlabel) refers to ff.o(i.put_utf) for put_utf
    ff.o(i.f_getlabel) refers to ff.o(i.move_window) for move_window
    ff.o(i.f_getlabel) refers to ff.o(i.ld_dword) for ld_dword
    ff.o(i.f_gets) refers to ff.o(i.f_read) for f_read
    ff.o(i.f_lseek) refers to ff.o(i.validate) for validate
    ff.o(i.f_lseek) refers to ff.o(i.fill_last_frag) for fill_last_frag
    ff.o(i.f_lseek) refers to ff.o(i.get_fat) for get_fat
    ff.o(i.f_lseek) refers to ff.o(i.clmt_clust) for clmt_clust
    ff.o(i.f_lseek) refers to ff.o(i.clst2sect) for clst2sect
    ff.o(i.f_lseek) refers to lludivv7m.o(.text) for __aeabi_uldivmod
    ff.o(i.f_lseek) refers to diskio.o(i.disk_write) for disk_write
    ff.o(i.f_lseek) refers to diskio.o(i.disk_read) for disk_read
    ff.o(i.f_lseek) refers to ff.o(i.create_chain) for create_chain
    ff.o(i.f_mkdir) refers to ff.o(i.mount_volume) for mount_volume
    ff.o(i.f_mkdir) refers to ffsystem.o(i.ff_memalloc) for ff_memalloc
    ff.o(i.f_mkdir) refers to ff.o(i.follow_path) for follow_path
    ff.o(i.f_mkdir) refers to ff.o(i.create_chain) for create_chain
    ff.o(i.f_mkdir) refers to ffsystem.o(i.get_fattime) for get_fattime
    ff.o(i.f_mkdir) refers to ff.o(i.dir_clear) for dir_clear
    ff.o(i.f_mkdir) refers to aeabi_memset.o(.text) for __aeabi_memset
    ff.o(i.f_mkdir) refers to ff.o(i.st_dword) for st_dword
    ff.o(i.f_mkdir) refers to ff.o(i.st_clust) for st_clust
    ff.o(i.f_mkdir) refers to rt_memcpy_w.o(.text) for __aeabi_memcpy4
    ff.o(i.f_mkdir) refers to ff.o(i.dir_register) for dir_register
    ff.o(i.f_mkdir) refers to ff.o(i.store_xdir) for store_xdir
    ff.o(i.f_mkdir) refers to ff.o(i.sync_fs) for sync_fs
    ff.o(i.f_mkdir) refers to ff.o(i.remove_chain) for remove_chain
    ff.o(i.f_mkdir) refers to ffsystem.o(i.ff_memfree) for ff_memfree
    ff.o(i.f_mkfs) refers to ff.o(i.get_ldnumber) for get_ldnumber
    ff.o(i.f_mkfs) refers to diskio.o(i.disk_initialize) for disk_initialize
    ff.o(i.f_mkfs) refers to diskio.o(i.disk_ioctl) for disk_ioctl
    ff.o(i.f_mkfs) refers to ffsystem.o(i.ff_memalloc) for ff_memalloc
    ff.o(i.f_mkfs) refers to ffsystem.o(i.ff_memfree) for ff_memfree
    ff.o(i.f_mkfs) refers to ffsystem.o(i.get_fattime) for get_fattime
    ff.o(i.f_mkfs) refers to myffunicode.o(i.ff_wtoupper) for ff_wtoupper
    ff.o(i.f_mkfs) refers to ff.o(i.xsum32) for xsum32
    ff.o(i.f_mkfs) refers to diskio.o(i.disk_write) for disk_write
    ff.o(i.f_mkfs) refers to ff.o(.data) for FatFs
    ff.o(i.f_mkfs) refers to ff.o(.constdata) for defopt
    ff.o(i.f_mkfs) refers to rt_memclr.o(.text) for __aeabi_memclr
    ff.o(i.f_mkfs) refers to ff.o(i.st_dword) for st_dword
    ff.o(i.f_mkfs) refers to ff.o(i.st_qword) for st_qword
    ff.o(i.f_mkfs) refers to ff.o(i.st_word) for st_word
    ff.o(i.f_mkfs) refers to rt_memcpy_v6.o(.text) for __aeabi_memcpy
    ff.o(i.f_mkfs) refers to ff.o(i.create_partition) for create_partition
    ff.o(i.f_mount) refers to ff.o(i.get_ldnumber) for get_ldnumber
    ff.o(i.f_mount) refers to ff.o(i.mount_volume) for mount_volume
    ff.o(i.f_mount) refers to ff.o(.data) for FatFs
    ff.o(i.f_open) refers to ff.o(i.mount_volume) for mount_volume
    ff.o(i.f_open) refers to ffsystem.o(i.ff_memalloc) for ff_memalloc
    ff.o(i.f_open) refers to ff.o(i.follow_path) for follow_path
    ff.o(i.f_open) refers to ff.o(i.dir_register) for dir_register
    ff.o(i.f_open) refers to ff.o(i.init_alloc_info) for init_alloc_info
    ff.o(i.f_open) refers to rt_memclr.o(.text) for __aeabi_memclr
    ff.o(i.f_open) refers to ffsystem.o(i.get_fattime) for get_fattime
    ff.o(i.f_open) refers to ff.o(i.st_dword) for st_dword
    ff.o(i.f_open) refers to ff.o(i.store_xdir) for store_xdir
    ff.o(i.f_open) refers to ff.o(i.remove_chain) for remove_chain
    ff.o(i.f_open) refers to ff.o(i.ld_clust) for ld_clust
    ff.o(i.f_open) refers to ff.o(i.st_clust) for st_clust
    ff.o(i.f_open) refers to ff.o(i.move_window) for move_window
    ff.o(i.f_open) refers to ff.o(i.ld_dword) for ld_dword
    ff.o(i.f_open) refers to rt_memclr_w.o(.text) for __aeabi_memclr4
    ff.o(i.f_open) refers to ff.o(i.get_fat) for get_fat
    ff.o(i.f_open) refers to lludivv7m.o(.text) for __aeabi_uldivmod
    ff.o(i.f_open) refers to ff.o(i.clst2sect) for clst2sect
    ff.o(i.f_open) refers to diskio.o(i.disk_read) for disk_read
    ff.o(i.f_open) refers to ffsystem.o(i.ff_memfree) for ff_memfree
    ff.o(i.f_opendir) refers to ff.o(i.mount_volume) for mount_volume
    ff.o(i.f_opendir) refers to ffsystem.o(i.ff_memalloc) for ff_memalloc
    ff.o(i.f_opendir) refers to ff.o(i.follow_path) for follow_path
    ff.o(i.f_opendir) refers to ff.o(i.init_alloc_info) for init_alloc_info
    ff.o(i.f_opendir) refers to ff.o(i.ld_clust) for ld_clust
    ff.o(i.f_opendir) refers to ff.o(i.dir_sdi) for dir_sdi
    ff.o(i.f_opendir) refers to ffsystem.o(i.ff_memfree) for ff_memfree
    ff.o(i.f_printf) refers to ff.o(i.putc_init) for putc_init
    ff.o(i.f_printf) refers to ff.o(i.putc_bfd) for putc_bfd
    ff.o(i.f_printf) refers to ff.o(i.putc_flush) for putc_flush
    ff.o(i.f_putc) refers to ff.o(i.putc_init) for putc_init
    ff.o(i.f_putc) refers to ff.o(i.putc_bfd) for putc_bfd
    ff.o(i.f_putc) refers to ff.o(i.putc_flush) for putc_flush
    ff.o(i.f_puts) refers to ff.o(i.putc_init) for putc_init
    ff.o(i.f_puts) refers to ff.o(i.putc_bfd) for putc_bfd
    ff.o(i.f_puts) refers to ff.o(i.putc_flush) for putc_flush
    ff.o(i.f_read) refers to ff.o(i.validate) for validate
    ff.o(i.f_read) refers to lludivv7m.o(.text) for __aeabi_uldivmod
    ff.o(i.f_read) refers to ff.o(i.clmt_clust) for clmt_clust
    ff.o(i.f_read) refers to ff.o(i.get_fat) for get_fat
    ff.o(i.f_read) refers to ff.o(i.clst2sect) for clst2sect
    ff.o(i.f_read) refers to diskio.o(i.disk_read) for disk_read
    ff.o(i.f_read) refers to rt_memcpy_v6.o(.text) for __aeabi_memcpy
    ff.o(i.f_read) refers to diskio.o(i.disk_write) for disk_write
    ff.o(i.f_readdir) refers to ff.o(i.validate) for validate
    ff.o(i.f_readdir) refers to ff.o(i.dir_sdi) for dir_sdi
    ff.o(i.f_readdir) refers to ffsystem.o(i.ff_memalloc) for ff_memalloc
    ff.o(i.f_readdir) refers to ff.o(i.dir_read) for dir_read
    ff.o(i.f_readdir) refers to ff.o(i.get_fileinfo) for get_fileinfo
    ff.o(i.f_readdir) refers to ff.o(i.dir_next) for dir_next
    ff.o(i.f_readdir) refers to ffsystem.o(i.ff_memfree) for ff_memfree
    ff.o(i.f_rename) refers to ff.o(i.get_ldnumber) for get_ldnumber
    ff.o(i.f_rename) refers to ff.o(i.mount_volume) for mount_volume
    ff.o(i.f_rename) refers to ffsystem.o(i.ff_memalloc) for ff_memalloc
    ff.o(i.f_rename) refers to ff.o(i.follow_path) for follow_path
    ff.o(i.f_rename) refers to rt_memcpy_v6.o(.text) for __aeabi_memcpy
    ff.o(i.f_rename) refers to rt_memcpy_w.o(.text) for __aeabi_memcpy4
    ff.o(i.f_rename) refers to ff.o(i.dir_register) for dir_register
    ff.o(i.f_rename) refers to ff.o(i.ld_word) for ld_word
    ff.o(i.f_rename) refers to ff.o(i.st_word) for st_word
    ff.o(i.f_rename) refers to ff.o(i.store_xdir) for store_xdir
    ff.o(i.f_rename) refers to ff.o(i.ld_clust) for ld_clust
    ff.o(i.f_rename) refers to ff.o(i.clst2sect) for clst2sect
    ff.o(i.f_rename) refers to ff.o(i.move_window) for move_window
    ff.o(i.f_rename) refers to ff.o(i.st_clust) for st_clust
    ff.o(i.f_rename) refers to ff.o(i.dir_remove) for dir_remove
    ff.o(i.f_rename) refers to ff.o(i.sync_fs) for sync_fs
    ff.o(i.f_rename) refers to ffsystem.o(i.ff_memfree) for ff_memfree
    ff.o(i.f_setlabel) refers to ff.o(i.mount_volume) for mount_volume
    ff.o(i.f_setlabel) refers to rt_memclr_w.o(.text) for __aeabi_memclr4
    ff.o(i.f_setlabel) refers to ff.o(i.tchar2uni) for tchar2uni
    ff.o(i.f_setlabel) refers to ff.o(i.st_word) for st_word
    ff.o(i.f_setlabel) refers to strchr.o(.text) for strchr
    ff.o(i.f_setlabel) refers to aeabi_memset.o(.text) for __aeabi_memset
    ff.o(i.f_setlabel) refers to myffunicode.o(i.ff_wtoupper) for ff_wtoupper
    ff.o(i.f_setlabel) refers to myffunicode.o(i.ff_uni2oem) for ff_uni2oem
    ff.o(i.f_setlabel) refers to ff.o(i.dir_sdi) for dir_sdi
    ff.o(i.f_setlabel) refers to ff.o(i.dir_read) for dir_read
    ff.o(i.f_setlabel) refers to rt_memcpy_v6.o(.text) for __aeabi_memcpy
    ff.o(i.f_setlabel) refers to ff.o(i.sync_fs) for sync_fs
    ff.o(i.f_setlabel) refers to ff.o(i.dir_alloc) for dir_alloc
    ff.o(i.f_setlabel) refers to rt_memclr.o(.text) for __aeabi_memclr
    ff.o(i.f_setlabel) refers to ff.o(.constdata) for badchr
    ff.o(i.f_stat) refers to ff.o(i.mount_volume) for mount_volume
    ff.o(i.f_stat) refers to ffsystem.o(i.ff_memalloc) for ff_memalloc
    ff.o(i.f_stat) refers to ff.o(i.follow_path) for follow_path
    ff.o(i.f_stat) refers to ff.o(i.get_fileinfo) for get_fileinfo
    ff.o(i.f_stat) refers to ffsystem.o(i.ff_memfree) for ff_memfree
    ff.o(i.f_sync) refers to ff.o(i.validate) for validate
    ff.o(i.f_sync) refers to diskio.o(i.disk_write) for disk_write
    ff.o(i.f_sync) refers to ffsystem.o(i.get_fattime) for get_fattime
    ff.o(i.f_sync) refers to ff.o(i.fill_first_frag) for fill_first_frag
    ff.o(i.f_sync) refers to ff.o(i.fill_last_frag) for fill_last_frag
    ff.o(i.f_sync) refers to ffsystem.o(i.ff_memalloc) for ff_memalloc
    ff.o(i.f_sync) refers to ff.o(i.load_obj_xdir) for load_obj_xdir
    ff.o(i.f_sync) refers to ff.o(i.st_dword) for st_dword
    ff.o(i.f_sync) refers to ff.o(i.st_qword) for st_qword
    ff.o(i.f_sync) refers to ff.o(i.store_xdir) for store_xdir
    ff.o(i.f_sync) refers to ff.o(i.sync_fs) for sync_fs
    ff.o(i.f_sync) refers to ffsystem.o(i.ff_memfree) for ff_memfree
    ff.o(i.f_sync) refers to ff.o(i.move_window) for move_window
    ff.o(i.f_sync) refers to ff.o(i.st_clust) for st_clust
    ff.o(i.f_sync) refers to ff.o(i.st_word) for st_word
    ff.o(i.f_truncate) refers to ff.o(i.validate) for validate
    ff.o(i.f_truncate) refers to ff.o(i.remove_chain) for remove_chain
    ff.o(i.f_truncate) refers to ff.o(i.get_fat) for get_fat
    ff.o(i.f_truncate) refers to diskio.o(i.disk_write) for disk_write
    ff.o(i.f_unlink) refers to ff.o(i.mount_volume) for mount_volume
    ff.o(i.f_unlink) refers to ffsystem.o(i.ff_memalloc) for ff_memalloc
    ff.o(i.f_unlink) refers to ff.o(i.follow_path) for follow_path
    ff.o(i.f_unlink) refers to ff.o(i.init_alloc_info) for init_alloc_info
    ff.o(i.f_unlink) refers to ff.o(i.ld_clust) for ld_clust
    ff.o(i.f_unlink) refers to ff.o(i.dir_sdi) for dir_sdi
    ff.o(i.f_unlink) refers to ff.o(i.dir_read) for dir_read
    ff.o(i.f_unlink) refers to ff.o(i.dir_remove) for dir_remove
    ff.o(i.f_unlink) refers to ff.o(i.remove_chain) for remove_chain
    ff.o(i.f_unlink) refers to ff.o(i.sync_fs) for sync_fs
    ff.o(i.f_unlink) refers to ffsystem.o(i.ff_memfree) for ff_memfree
    ff.o(i.f_write) refers to ff.o(i.validate) for validate
    ff.o(i.f_write) refers to lludivv7m.o(.text) for __aeabi_uldivmod
    ff.o(i.f_write) refers to ff.o(i.create_chain) for create_chain
    ff.o(i.f_write) refers to ff.o(i.clmt_clust) for clmt_clust
    ff.o(i.f_write) refers to diskio.o(i.disk_write) for disk_write
    ff.o(i.f_write) refers to ff.o(i.clst2sect) for clst2sect
    ff.o(i.f_write) refers to rt_memcpy_v6.o(.text) for __aeabi_memcpy
    ff.o(i.f_write) refers to diskio.o(i.disk_read) for disk_read
    ff.o(i.fill_first_frag) refers to ff.o(i.put_fat) for put_fat
    ff.o(i.fill_last_frag) refers to ff.o(i.put_fat) for put_fat
    ff.o(i.find_bitmap) refers to ff.o(i.move_window) for move_window
    ff.o(i.find_volume) refers to ff.o(i.check_fs) for check_fs
    ff.o(i.find_volume) refers to ff.o(i.ld_dword) for ld_dword
    ff.o(i.follow_path) refers to ff.o(i.dir_sdi) for dir_sdi
    ff.o(i.follow_path) refers to ff.o(i.create_name) for create_name
    ff.o(i.follow_path) refers to ff.o(i.dir_find) for dir_find
    ff.o(i.follow_path) refers to ff.o(i.init_alloc_info) for init_alloc_info
    ff.o(i.follow_path) refers to ff.o(i.ld_clust) for ld_clust
    ff.o(i.gen_numname) refers to ff.o(i.dbc_1st) for dbc_1st
    ff.o(i.get_fat) refers to ff.o(i.move_window) for move_window
    ff.o(i.get_fat) refers to ff.o(i.ld_word) for ld_word
    ff.o(i.get_fat) refers to ff.o(i.ld_dword) for ld_dword
    ff.o(i.get_fat) refers to lludivv7m.o(.text) for __aeabi_uldivmod
    ff.o(i.get_fileinfo) refers to ff.o(i.ld_word) for ld_word
    ff.o(i.get_fileinfo) refers to ff.o(i.put_utf) for put_utf
    ff.o(i.get_fileinfo) refers to ff.o(i.ld_qword) for ld_qword
    ff.o(i.get_fileinfo) refers to ff.o(i.ld_dword) for ld_dword
    ff.o(i.init_alloc_info) refers to ff.o(i.ld_dword) for ld_dword
    ff.o(i.init_alloc_info) refers to ff.o(i.ld_qword) for ld_qword
    ff.o(i.ld_clust) refers to ff.o(i.ld_word) for ld_word
    ff.o(i.load_obj_xdir) refers to ff.o(i.dir_sdi) for dir_sdi
    ff.o(i.load_obj_xdir) refers to ff.o(i.load_xdir) for load_xdir
    ff.o(i.load_xdir) refers to ff.o(i.move_window) for move_window
    ff.o(i.load_xdir) refers to rt_memcpy_v6.o(.text) for __aeabi_memcpy
    ff.o(i.load_xdir) refers to ff.o(i.dir_next) for dir_next
    ff.o(i.load_xdir) refers to ff.o(i.xdir_sum) for xdir_sum
    ff.o(i.load_xdir) refers to ff.o(i.ld_word) for ld_word
    ff.o(i.mount_volume) refers to ff.o(i.get_ldnumber) for get_ldnumber
    ff.o(i.mount_volume) refers to diskio.o(i.disk_status) for disk_status
    ff.o(i.mount_volume) refers to diskio.o(i.disk_initialize) for disk_initialize
    ff.o(i.mount_volume) refers to ff.o(i.find_volume) for find_volume
    ff.o(i.mount_volume) refers to ff.o(i.ld_word) for ld_word
    ff.o(i.mount_volume) refers to ff.o(i.ld_qword) for ld_qword
    ff.o(i.mount_volume) refers to ff.o(i.ld_dword) for ld_dword
    ff.o(i.mount_volume) refers to ff.o(i.clst2sect) for clst2sect
    ff.o(i.mount_volume) refers to ff.o(i.move_window) for move_window
    ff.o(i.mount_volume) refers to ff.o(.data) for FatFs
    ff.o(i.move_window) refers to ff.o(i.sync_window) for sync_window
    ff.o(i.move_window) refers to diskio.o(i.disk_read) for disk_read
    ff.o(i.pick_lfn) refers to ff.o(i.ld_word) for ld_word
    ff.o(i.pick_lfn) refers to ff.o(.constdata) for LfnOfs
    ff.o(i.put_fat) refers to ff.o(i.move_window) for move_window
    ff.o(i.put_fat) refers to ff.o(i.st_word) for st_word
    ff.o(i.put_fat) refers to ff.o(i.ld_dword) for ld_dword
    ff.o(i.put_fat) refers to ff.o(i.st_dword) for st_dword
    ff.o(i.put_lfn) refers to ff.o(i.st_word) for st_word
    ff.o(i.put_lfn) refers to ff.o(.constdata) for LfnOfs
    ff.o(i.put_utf) refers to myffunicode.o(i.ff_uni2oem) for ff_uni2oem
    ff.o(i.putc_bfd) refers to ff.o(i.f_write) for f_write
    ff.o(i.putc_flush) refers to ff.o(i.f_write) for f_write
    ff.o(i.putc_init) refers to rt_memclr_w.o(.text) for __aeabi_memclr4
    ff.o(i.remove_chain) refers to ff.o(i.put_fat) for put_fat
    ff.o(i.remove_chain) refers to ff.o(i.get_fat) for get_fat
    ff.o(i.remove_chain) refers to ff.o(i.change_bitmap) for change_bitmap
    ff.o(i.st_clust) refers to ff.o(i.st_word) for st_word
    ff.o(i.store_xdir) refers to ff.o(i.xdir_sum) for xdir_sum
    ff.o(i.store_xdir) refers to ff.o(i.st_word) for st_word
    ff.o(i.store_xdir) refers to ff.o(i.dir_sdi) for dir_sdi
    ff.o(i.store_xdir) refers to ff.o(i.move_window) for move_window
    ff.o(i.store_xdir) refers to rt_memcpy_v6.o(.text) for __aeabi_memcpy
    ff.o(i.store_xdir) refers to ff.o(i.dir_next) for dir_next
    ff.o(i.sync_fs) refers to ff.o(i.sync_window) for sync_window
    ff.o(i.sync_fs) refers to rt_memclr_w.o(.text) for __aeabi_memclr4
    ff.o(i.sync_fs) refers to ff.o(i.st_word) for st_word
    ff.o(i.sync_fs) refers to ff.o(i.st_dword) for st_dword
    ff.o(i.sync_fs) refers to diskio.o(i.disk_write) for disk_write
    ff.o(i.sync_fs) refers to diskio.o(i.disk_ioctl) for disk_ioctl
    ff.o(i.sync_window) refers to diskio.o(i.disk_write) for disk_write
    ff.o(i.tchar2uni) refers to ff.o(i.dbc_1st) for dbc_1st
    ff.o(i.tchar2uni) refers to ff.o(i.dbc_2nd) for dbc_2nd
    ff.o(i.tchar2uni) refers to myffunicode.o(i.ff_oem2uni) for ff_oem2uni
    ff.o(i.validate) refers to diskio.o(i.disk_status) for disk_status
    ff.o(i.xname_sum) refers to myffunicode.o(i.ff_wtoupper) for ff_wtoupper
    ffsystem.o(i.ff_memalloc) refers to malloc.o(i.mymalloc) for mymalloc
    ffsystem.o(i.ff_memfree) refers to malloc.o(i.myfree) for myfree
    exfuns.o(i.exfuns_file_copy) refers to malloc.o(i.mymalloc) for mymalloc
    exfuns.o(i.exfuns_file_copy) refers to ff.o(i.f_open) for f_open
    exfuns.o(i.exfuns_file_copy) refers to lludivv7m.o(.text) for __aeabi_uldivmod
    exfuns.o(i.exfuns_file_copy) refers to ff.o(i.f_read) for f_read
    exfuns.o(i.exfuns_file_copy) refers to ff.o(i.f_write) for f_write
    exfuns.o(i.exfuns_file_copy) refers to ff.o(i.f_close) for f_close
    exfuns.o(i.exfuns_file_copy) refers to malloc.o(i.myfree) for myfree
    exfuns.o(i.exfuns_file_type) refers to strcpy.o(.text) for strcpy
    exfuns.o(i.exfuns_file_type) refers to exfuns.o(i.exfuns_char_upper) for exfuns_char_upper
    exfuns.o(i.exfuns_file_type) refers to strcmpv7m.o(.text) for strcmp
    exfuns.o(i.exfuns_file_type) refers to exfuns.o(.constdata) for FILE_TYPE_TBL
    exfuns.o(i.exfuns_folder_copy) refers to malloc.o(i.mymalloc) for mymalloc
    exfuns.o(i.exfuns_folder_copy) refers to strcat.o(.text) for strcat
    exfuns.o(i.exfuns_folder_copy) refers to ff.o(i.f_opendir) for f_opendir
    exfuns.o(i.exfuns_folder_copy) refers to exfuns.o(i.exfuns_get_src_dname) for exfuns_get_src_dname
    exfuns.o(i.exfuns_folder_copy) refers to strlen.o(.text) for strlen
    exfuns.o(i.exfuns_folder_copy) refers to ff.o(i.f_mkdir) for f_mkdir
    exfuns.o(i.exfuns_folder_copy) refers to ff.o(i.f_readdir) for f_readdir
    exfuns.o(i.exfuns_folder_copy) refers to exfuns.o(i.exfuns_file_copy) for exfuns_file_copy
    exfuns.o(i.exfuns_folder_copy) refers to malloc.o(i.myfree) for myfree
    exfuns.o(i.exfuns_get_folder_size) refers to malloc.o(i.mymalloc) for mymalloc
    exfuns.o(i.exfuns_get_folder_size) refers to strcat.o(.text) for strcat
    exfuns.o(i.exfuns_get_folder_size) refers to ff.o(i.f_opendir) for f_opendir
    exfuns.o(i.exfuns_get_folder_size) refers to ff.o(i.f_readdir) for f_readdir
    exfuns.o(i.exfuns_get_folder_size) refers to strlen.o(.text) for strlen
    exfuns.o(i.exfuns_get_folder_size) refers to malloc.o(i.myfree) for myfree
    exfuns.o(i.exfuns_get_free) refers to ff.o(i.f_getfree) for f_getfree
    exfuns.o(i.exfuns_init) refers to malloc.o(i.mymalloc) for mymalloc
    exfuns.o(i.exfuns_init) refers to fattester.o(i.mf_init) for mf_init
    exfuns.o(i.exfuns_init) refers to exfuns.o(.data) for fs
    exfuns.o(.constdata) refers to exfuns.o(.conststring) for .conststring
    fattester.o(i.mf_close) refers to ff.o(i.f_close) for f_close
    fattester.o(i.mf_close) refers to fattester.o(.bss) for fattester
    fattester.o(i.mf_closedir) refers to ff.o(i.f_closedir) for f_closedir
    fattester.o(i.mf_closedir) refers to fattester.o(.bss) for fattester
    fattester.o(i.mf_fmkfs) refers to ff.o(i.f_mkfs) for f_mkfs
    fattester.o(i.mf_fmkfs) refers to fattester.o(.constdata) for .constdata
    fattester.o(i.mf_free) refers to malloc.o(i.myfree) for myfree
    fattester.o(i.mf_free) refers to fattester.o(.bss) for fattester
    fattester.o(i.mf_getlabel) refers to _printf_percent.o(.ARM.Collect$$_printf_percent$$00000000) for _printf_percent
    fattester.o(i.mf_getlabel) refers to _printf_s.o(.ARM.Collect$$_printf_percent$$00000014) for _printf_s
    fattester.o(i.mf_getlabel) refers to _printf_str.o(.text) for _printf_str
    fattester.o(i.mf_getlabel) refers to _printf_x.o(.ARM.Collect$$_printf_percent$$0000000C) for _printf_x
    fattester.o(i.mf_getlabel) refers to _printf_hex_int.o(.text) for _printf_longlong_hex
    fattester.o(i.mf_getlabel) refers to ff.o(i.f_getlabel) for f_getlabel
    fattester.o(i.mf_getlabel) refers to noretval__2printf.o(.text) for __2printf
    fattester.o(i.mf_gets) refers to _printf_percent.o(.ARM.Collect$$_printf_percent$$00000000) for _printf_percent
    fattester.o(i.mf_gets) refers to _printf_s.o(.ARM.Collect$$_printf_percent$$00000014) for _printf_s
    fattester.o(i.mf_gets) refers to _printf_str.o(.text) for _printf_str
    fattester.o(i.mf_gets) refers to ff.o(i.f_gets) for f_gets
    fattester.o(i.mf_gets) refers to noretval__2printf.o(.text) for __2printf
    fattester.o(i.mf_gets) refers to fattester.o(.bss) for fattester
    fattester.o(i.mf_init) refers to malloc.o(i.mymalloc) for mymalloc
    fattester.o(i.mf_init) refers to fattester.o(i.mf_free) for mf_free
    fattester.o(i.mf_init) refers to fattester.o(.bss) for fattester
    fattester.o(i.mf_lseek) refers to ff.o(i.f_lseek) for f_lseek
    fattester.o(i.mf_lseek) refers to fattester.o(.bss) for fattester
    fattester.o(i.mf_mkdir) refers to ff.o(i.f_mkdir) for f_mkdir
    fattester.o(i.mf_mount) refers to ff.o(i.f_mount) for f_mount
    fattester.o(i.mf_mount) refers to exfuns.o(.data) for fs
    fattester.o(i.mf_open) refers to ff.o(i.f_open) for f_open
    fattester.o(i.mf_open) refers to fattester.o(.bss) for fattester
    fattester.o(i.mf_opendir) refers to ff.o(i.f_opendir) for f_opendir
    fattester.o(i.mf_opendir) refers to fattester.o(.bss) for fattester
    fattester.o(i.mf_putc) refers to ff.o(i.f_putc) for f_putc
    fattester.o(i.mf_putc) refers to fattester.o(.bss) for fattester
    fattester.o(i.mf_puts) refers to ff.o(i.f_puts) for f_puts
    fattester.o(i.mf_puts) refers to fattester.o(.bss) for fattester
    fattester.o(i.mf_read) refers to _printf_percent.o(.ARM.Collect$$_printf_percent$$00000000) for _printf_percent
    fattester.o(i.mf_read) refers to _printf_d.o(.ARM.Collect$$_printf_percent$$00000009) for _printf_d
    fattester.o(i.mf_read) refers to _printf_dec.o(.text) for _printf_int_dec
    fattester.o(i.mf_read) refers to _printf_c.o(.ARM.Collect$$_printf_percent$$00000013) for _printf_c
    fattester.o(i.mf_read) refers to _printf_str.o(.text) for _printf_str
    fattester.o(i.mf_read) refers to noretval__2printf.o(.text) for __2printf
    fattester.o(i.mf_read) refers to ff.o(i.f_read) for f_read
    fattester.o(i.mf_read) refers to fattester.o(.bss) for fattester
    fattester.o(i.mf_readdir) refers to _printf_percent.o(.ARM.Collect$$_printf_percent$$00000000) for _printf_percent
    fattester.o(i.mf_readdir) refers to _printf_d.o(.ARM.Collect$$_printf_percent$$00000009) for _printf_d
    fattester.o(i.mf_readdir) refers to _printf_dec.o(.text) for _printf_int_dec
    fattester.o(i.mf_readdir) refers to _printf_lld.o(.ARM.Collect$$_printf_percent$$0000000E) for _printf_lld
    fattester.o(i.mf_readdir) refers to _printf_longlong_dec.o(.text) for _printf_longlong_dec
    fattester.o(i.mf_readdir) refers to _printf_s.o(.ARM.Collect$$_printf_percent$$00000014) for _printf_s
    fattester.o(i.mf_readdir) refers to _printf_str.o(.text) for _printf_str
    fattester.o(i.mf_readdir) refers to ff.o(i.f_readdir) for f_readdir
    fattester.o(i.mf_readdir) refers to noretval__2printf.o(.text) for __2printf
    fattester.o(i.mf_readdir) refers to fattester.o(.bss) for fattester
    fattester.o(i.mf_rename) refers to ff.o(i.f_rename) for f_rename
    fattester.o(i.mf_scan_files) refers to _printf_percent.o(.ARM.Collect$$_printf_percent$$00000000) for _printf_percent
    fattester.o(i.mf_scan_files) refers to _printf_s.o(.ARM.Collect$$_printf_percent$$00000014) for _printf_s
    fattester.o(i.mf_scan_files) refers to _printf_str.o(.text) for _printf_str
    fattester.o(i.mf_scan_files) refers to ff.o(i.f_opendir) for f_opendir
    fattester.o(i.mf_scan_files) refers to noretval__2printf.o(.text) for __2printf
    fattester.o(i.mf_scan_files) refers to ff.o(i.f_readdir) for f_readdir
    fattester.o(i.mf_scan_files) refers to fattester.o(.bss) for fattester
    fattester.o(i.mf_setlabel) refers to _printf_percent.o(.ARM.Collect$$_printf_percent$$00000000) for _printf_percent
    fattester.o(i.mf_setlabel) refers to _printf_s.o(.ARM.Collect$$_printf_percent$$00000014) for _printf_s
    fattester.o(i.mf_setlabel) refers to _printf_str.o(.text) for _printf_str
    fattester.o(i.mf_setlabel) refers to _printf_x.o(.ARM.Collect$$_printf_percent$$0000000C) for _printf_x
    fattester.o(i.mf_setlabel) refers to _printf_hex_int.o(.text) for _printf_longlong_hex
    fattester.o(i.mf_setlabel) refers to ff.o(i.f_setlabel) for f_setlabel
    fattester.o(i.mf_setlabel) refers to noretval__2printf.o(.text) for __2printf
    fattester.o(i.mf_showfree) refers to _printf_percent.o(.ARM.Collect$$_printf_percent$$00000000) for _printf_percent
    fattester.o(i.mf_showfree) refers to _printf_d.o(.ARM.Collect$$_printf_percent$$00000009) for _printf_d
    fattester.o(i.mf_showfree) refers to _printf_dec.o(.text) for _printf_int_dec
    fattester.o(i.mf_showfree) refers to ff.o(i.f_getfree) for f_getfree
    fattester.o(i.mf_showfree) refers to noretval__2printf.o(.text) for __2printf
    fattester.o(i.mf_size) refers to fattester.o(.bss) for fattester
    fattester.o(i.mf_tell) refers to fattester.o(.bss) for fattester
    fattester.o(i.mf_unlink) refers to ff.o(i.f_unlink) for f_unlink
    fattester.o(i.mf_write) refers to _printf_percent.o(.ARM.Collect$$_printf_percent$$00000000) for _printf_percent
    fattester.o(i.mf_write) refers to _printf_d.o(.ARM.Collect$$_printf_percent$$00000009) for _printf_d
    fattester.o(i.mf_write) refers to _printf_dec.o(.text) for _printf_int_dec
    fattester.o(i.mf_write) refers to noretval__2printf.o(.text) for __2printf
    fattester.o(i.mf_write) refers to ff.o(i.f_write) for f_write
    fattester.o(i.mf_write) refers to fattester.o(.bss) for fattester
    myffunicode.o(i.ff_oem2uni) refers to norflash.o(i.norflash_read) for norflash_read
    myffunicode.o(i.ff_oem2uni) refers to fonts.o(.bss) for ftinfo
    myffunicode.o(i.ff_uni2oem) refers to norflash.o(i.norflash_read) for norflash_read
    myffunicode.o(i.ff_uni2oem) refers to fonts.o(.bss) for ftinfo
    myffunicode.o(i.ff_wtoupper) refers to myffunicode.o(.constdata) for cvt1
    fonts.o(i.fonts_init) refers to norflash.o(i.norflash_read) for norflash_read
    fonts.o(i.fonts_init) refers to delay.o(i.delay_ms) for delay_ms
    fonts.o(i.fonts_init) refers to fonts.o(.bss) for ftinfo
    fonts.o(i.fonts_progress_show) refers to lcd.o(i.lcd_show_string) for lcd_show_string
    fonts.o(i.fonts_progress_show) refers to lcd.o(i.lcd_show_num) for lcd_show_num
    fonts.o(i.fonts_update_font) refers to malloc.o(i.mymalloc) for mymalloc
    fonts.o(i.fonts_update_font) refers to malloc.o(i.myfree) for myfree
    fonts.o(i.fonts_update_font) refers to strcpy.o(.text) for strcpy
    fonts.o(i.fonts_update_font) refers to strcat.o(.text) for strcat
    fonts.o(i.fonts_update_font) refers to ff.o(i.f_open) for f_open
    fonts.o(i.fonts_update_font) refers to lcd.o(i.lcd_show_string) for lcd_show_string
    fonts.o(i.fonts_update_font) refers to fonts.o(i.fonts_progress_show) for fonts_progress_show
    fonts.o(i.fonts_update_font) refers to norflash.o(i.norflash_read) for norflash_read
    fonts.o(i.fonts_update_font) refers to norflash.o(i.norflash_erase_sector) for norflash_erase_sector
    fonts.o(i.fonts_update_font) refers to fonts.o(i.fonts_update_fontx) for fonts_update_fontx
    fonts.o(i.fonts_update_font) refers to norflash.o(i.norflash_write) for norflash_write
    fonts.o(i.fonts_update_font) refers to fonts.o(.bss) for ftinfo
    fonts.o(i.fonts_update_font) refers to fonts.o(.constdata) for FONT_GBK_PATH
    fonts.o(i.fonts_update_fontx) refers to malloc.o(i.mymalloc) for mymalloc
    fonts.o(i.fonts_update_fontx) refers to ff.o(i.f_open) for f_open
    fonts.o(i.fonts_update_fontx) refers to ff.o(i.f_read) for f_read
    fonts.o(i.fonts_update_fontx) refers to norflash.o(i.norflash_write) for norflash_write
    fonts.o(i.fonts_update_fontx) refers to fonts.o(i.fonts_progress_show) for fonts_progress_show
    fonts.o(i.fonts_update_fontx) refers to ff.o(i.f_close) for f_close
    fonts.o(i.fonts_update_fontx) refers to malloc.o(i.myfree) for myfree
    fonts.o(i.fonts_update_fontx) refers to fonts.o(.bss) for ftinfo
    fonts.o(.constdata) refers to fonts.o(.conststring) for .conststring
    text.o(i.text_get_hz_mat) refers to norflash.o(i.norflash_read) for norflash_read
    text.o(i.text_get_hz_mat) refers to fonts.o(.bss) for ftinfo
    text.o(i.text_show_font) refers to malloc.o(i.mymalloc) for mymalloc
    text.o(i.text_show_font) refers to text.o(i.text_get_hz_mat) for text_get_hz_mat
    text.o(i.text_show_font) refers to lcd.o(i.lcd_draw_point) for lcd_draw_point
    text.o(i.text_show_font) refers to malloc.o(i.myfree) for myfree
    text.o(i.text_show_font) refers to lcd.o(.data) for g_back_color
    text.o(i.text_show_string) refers to lcd.o(i.lcd_show_char) for lcd_show_char
    text.o(i.text_show_string) refers to text.o(i.text_show_font) for text_show_font
    text.o(i.text_show_string_middle) refers to strlen.o(.text) for strlen
    text.o(i.text_show_string_middle) refers to text.o(i.text_show_string) for text_show_string
    text.o(i.text_show_string_middle) refers to lcd.o(.bss) for lcddev
    bmp.o(i.bmp_encode) refers to piclib.o(i.piclib_mem_malloc) for piclib_mem_malloc
    bmp.o(i.bmp_encode) refers to piclib.o(i.piclib_mem_free) for piclib_mem_free
    bmp.o(i.bmp_encode) refers to malloc.o(i.my_mem_set) for my_mem_set
    bmp.o(i.bmp_encode) refers to ff.o(i.f_open) for f_open
    bmp.o(i.bmp_encode) refers to ff.o(i.f_write) for f_write
    bmp.o(i.bmp_encode) refers to ff.o(i.f_close) for f_close
    bmp.o(i.bmp_encode) refers to lcd.o(.bss) for lcddev
    bmp.o(i.bmp_encode) refers to piclib.o(.bss) for pic_phy
    bmp.o(i.minibmp_decode) refers to piclib.o(i.piclib_mem_malloc) for piclib_mem_malloc
    bmp.o(i.minibmp_decode) refers to piclib.o(i.piclib_mem_free) for piclib_mem_free
    bmp.o(i.minibmp_decode) refers to ff.o(i.f_open) for f_open
    bmp.o(i.minibmp_decode) refers to ff.o(i.f_read) for f_read
    bmp.o(i.minibmp_decode) refers to ff.o(i.f_lseek) for f_lseek
    bmp.o(i.minibmp_decode) refers to piclib.o(i.piclib_alpha_blend) for piclib_alpha_blend
    bmp.o(i.minibmp_decode) refers to ff.o(i.f_close) for f_close
    bmp.o(i.minibmp_decode) refers to piclib.o(.bss) for picinfo
    bmp.o(i.stdbmp_decode) refers to piclib.o(i.piclib_mem_malloc) for piclib_mem_malloc
    bmp.o(i.stdbmp_decode) refers to piclib.o(i.piclib_mem_free) for piclib_mem_free
    bmp.o(i.stdbmp_decode) refers to ff.o(i.f_open) for f_open
    bmp.o(i.stdbmp_decode) refers to ff.o(i.f_read) for f_read
    bmp.o(i.stdbmp_decode) refers to piclib.o(i.piclib_ai_draw_init) for piclib_ai_draw_init
    bmp.o(i.stdbmp_decode) refers to piclib.o(i.piclib_is_element_ok) for piclib_is_element_ok
    bmp.o(i.stdbmp_decode) refers to ff.o(i.f_close) for f_close
    bmp.o(i.stdbmp_decode) refers to piclib.o(.bss) for picinfo
    gif.o(i.gif_check_head) refers to ff.o(i.f_read) for f_read
    gif.o(i.gif_clear2bkcolor) refers to piclib.o(.bss) for pic_phy
    gif.o(i.gif_decode) refers to piclib.o(i.piclib_mem_malloc) for piclib_mem_malloc
    gif.o(i.gif_decode) refers to ff.o(i.f_open) for f_open
    gif.o(i.gif_decode) refers to gif.o(i.gif_check_head) for gif_check_head
    gif.o(i.gif_decode) refers to gif.o(i.gif_getinfo) for gif_getinfo
    gif.o(i.gif_decode) refers to gif.o(i.gif_drawimage) for gif_drawimage
    gif.o(i.gif_decode) refers to gif.o(i.gif_recovergctbl) for gif_recovergctbl
    gif.o(i.gif_decode) refers to delay.o(i.delay_ms) for delay_ms
    gif.o(i.gif_decode) refers to ff.o(i.f_close) for f_close
    gif.o(i.gif_decode) refers to piclib.o(i.piclib_mem_free) for piclib_mem_free
    gif.o(i.gif_decode) refers to gif.o(.data) for g_gif_decoding
    gif.o(i.gif_dispimage) refers to ff.o(i.f_read) for f_read
    gif.o(i.gif_dispimage) refers to gif.o(i.gif_initlzw) for gif_initlzw
    gif.o(i.gif_dispimage) refers to gif.o(i.gif_getnextbyte) for gif_getnextbyte
    gif.o(i.gif_dispimage) refers to piclib.o(.bss) for pic_phy
    gif.o(i.gif_dispimage) refers to gif.o(.constdata) for _aInterlaceOffset
    gif.o(i.gif_drawimage) refers to ff.o(i.f_read) for f_read
    gif.o(i.gif_drawimage) refers to gif.o(i.gif_savegctbl) for gif_savegctbl
    gif.o(i.gif_drawimage) refers to gif.o(i.gif_readcolortbl) for gif_readcolortbl
    gif.o(i.gif_drawimage) refers to gif.o(i.gif_clear2bkcolor) for gif_clear2bkcolor
    gif.o(i.gif_drawimage) refers to gif.o(i.gif_dispimage) for gif_dispimage
    gif.o(i.gif_drawimage) refers to ff.o(i.f_lseek) for f_lseek
    gif.o(i.gif_drawimage) refers to gif.o(i.gif_readextension) for gif_readextension
    gif.o(i.gif_getdatablock) refers to ff.o(i.f_read) for f_read
    gif.o(i.gif_getdatablock) refers to ff.o(i.f_lseek) for f_lseek
    gif.o(i.gif_getinfo) refers to ff.o(i.f_read) for f_read
    gif.o(i.gif_getinfo) refers to gif.o(i.gif_readcolortbl) for gif_readcolortbl
    gif.o(i.gif_getnextbyte) refers to malloc.o(i.my_mem_set) for my_mem_set
    gif.o(i.gif_getnextbyte) refers to gif.o(i.gif_getnextcode) for gif_getnextcode
    gif.o(i.gif_getnextcode) refers to gif.o(i.gif_getdatablock) for gif_getdatablock
    gif.o(i.gif_getnextcode) refers to gif.o(.constdata) for _aMaskTbl
    gif.o(i.gif_initlzw) refers to malloc.o(i.my_mem_set) for my_mem_set
    gif.o(i.gif_quit) refers to gif.o(.data) for g_gif_decoding
    gif.o(i.gif_readcolortbl) refers to ff.o(i.f_read) for f_read
    gif.o(i.gif_readcolortbl) refers to gif.o(i.gif_getrgb565) for gif_getrgb565
    gif.o(i.gif_readextension) refers to ff.o(i.f_read) for f_read
    gif.o(i.gif_readextension) refers to gif.o(i.gif_getdatablock) for gif_getdatablock
    piclib.o(i.piclib_ai_draw_init) refers to piclib.o(.bss) for picinfo
    piclib.o(i.piclib_ai_load_picfile) refers to exfuns.o(i.exfuns_file_type) for exfuns_file_type
    piclib.o(i.piclib_ai_load_picfile) refers to bmp.o(i.stdbmp_decode) for stdbmp_decode
    piclib.o(i.piclib_ai_load_picfile) refers to tjpgd.o(i.jpg_decode) for jpg_decode
    piclib.o(i.piclib_ai_load_picfile) refers to gif.o(i.gif_decode) for gif_decode
    piclib.o(i.piclib_ai_load_picfile) refers to piclib.o(.bss) for picinfo
    piclib.o(i.piclib_ai_load_picfile) refers to lcd.o(.bss) for lcddev
    piclib.o(i.piclib_fill_color) refers to lcd.o(i.lcd_color_fill) for lcd_color_fill
    piclib.o(i.piclib_init) refers to lcd.o(i.lcd_read_point) for lcd_read_point
    piclib.o(i.piclib_init) refers to piclib.o(.bss) for pic_phy
    piclib.o(i.piclib_init) refers to lcd.o(i.lcd_draw_point) for lcd_draw_point
    piclib.o(i.piclib_init) refers to lcd.o(i.lcd_fill) for lcd_fill
    piclib.o(i.piclib_init) refers to lcd.o(i.lcd_draw_hline) for lcd_draw_hline
    piclib.o(i.piclib_init) refers to piclib.o(i.piclib_fill_color) for piclib_fill_color
    piclib.o(i.piclib_init) refers to lcd.o(.bss) for lcddev
    piclib.o(i.piclib_mem_free) refers to malloc.o(i.myfree) for myfree
    piclib.o(i.piclib_mem_malloc) refers to malloc.o(i.mymalloc) for mymalloc
    tjpgd.o(i.create_huffman_tbl) refers to tjpgd.o(i.alloc_pool) for alloc_pool
    tjpgd.o(i.create_huffman_tbl) refers to aeabi_memset.o(.text) for __aeabi_memset
    tjpgd.o(i.jd_decomp) refers to tjpgd.o(i.restart) for restart
    tjpgd.o(i.jd_decomp) refers to tjpgd.o(i.mcu_load) for mcu_load
    tjpgd.o(i.jd_decomp) refers to tjpgd.o(i.mcu_output) for mcu_output
    tjpgd.o(i.jd_prepare) refers to rt_memclr_w.o(.text) for __aeabi_memclr4
    tjpgd.o(i.jd_prepare) refers to tjpgd.o(i.alloc_pool) for alloc_pool
    tjpgd.o(i.jd_prepare) refers to tjpgd.o(i.create_huffman_tbl) for create_huffman_tbl
    tjpgd.o(i.jd_prepare) refers to tjpgd.o(.constdata) for .constdata
    tjpgd.o(i.jpeg_freeall) refers to piclib.o(i.piclib_mem_free) for piclib_mem_free
    tjpgd.o(i.jpeg_freeall) refers to tjpgd.o(.data) for .data
    tjpgd.o(i.jpeg_in_func) refers to ff.o(i.f_read) for f_read
    tjpgd.o(i.jpeg_in_func) refers to ff.o(i.f_lseek) for f_lseek
    tjpgd.o(i.jpeg_mallocall) refers to piclib.o(i.piclib_mem_malloc) for piclib_mem_malloc
    tjpgd.o(i.jpeg_mallocall) refers to tjpgd.o(.data) for .data
    tjpgd.o(i.jpeg_out_func_fill) refers to piclib.o(.bss) for picinfo
    tjpgd.o(i.jpeg_out_func_point) refers to piclib.o(i.piclib_is_element_ok) for piclib_is_element_ok
    tjpgd.o(i.jpeg_out_func_point) refers to piclib.o(.bss) for picinfo
    tjpgd.o(i.jpg_decode) refers to tjpgd.o(i.jpeg_mallocall) for jpeg_mallocall
    tjpgd.o(i.jpg_decode) refers to ff.o(i.f_open) for f_open
    tjpgd.o(i.jpg_decode) refers to tjpgd.o(i.jd_prepare) for jd_prepare
    tjpgd.o(i.jpg_decode) refers to piclib.o(i.piclib_ai_draw_init) for piclib_ai_draw_init
    tjpgd.o(i.jpg_decode) refers to tjpgd.o(i.jd_decomp) for jd_decomp
    tjpgd.o(i.jpg_decode) refers to ff.o(i.f_close) for f_close
    tjpgd.o(i.jpg_decode) refers to tjpgd.o(i.jpeg_freeall) for jpeg_freeall
    tjpgd.o(i.jpg_decode) refers to tjpgd.o(.data) for .data
    tjpgd.o(i.jpg_decode) refers to tjpgd.o(i.jpeg_in_func) for jpeg_in_func
    tjpgd.o(i.jpg_decode) refers to tjpgd.o(i.jpeg_out_func_point) for jpeg_out_func_point
    tjpgd.o(i.jpg_decode) refers to piclib.o(.bss) for picinfo
    tjpgd.o(i.jpg_decode) refers to tjpgd.o(i.jpeg_out_func_fill) for jpeg_out_func_fill
    tjpgd.o(i.jpg_get_size) refers to tjpgd.o(i.jpeg_mallocall) for jpeg_mallocall
    tjpgd.o(i.jpg_get_size) refers to ff.o(i.f_open) for f_open
    tjpgd.o(i.jpg_get_size) refers to tjpgd.o(i.jd_prepare) for jd_prepare
    tjpgd.o(i.jpg_get_size) refers to ff.o(i.f_close) for f_close
    tjpgd.o(i.jpg_get_size) refers to tjpgd.o(i.jpeg_freeall) for jpeg_freeall
    tjpgd.o(i.jpg_get_size) refers to tjpgd.o(.data) for .data
    tjpgd.o(i.jpg_get_size) refers to tjpgd.o(i.jpeg_in_func) for jpeg_in_func
    tjpgd.o(i.mcu_load) refers to tjpgd.o(i.huffext) for huffext
    tjpgd.o(i.mcu_load) refers to tjpgd.o(i.bitext) for bitext
    tjpgd.o(i.mcu_load) refers to rt_memclr_w.o(.text) for __aeabi_memclr4
    tjpgd.o(i.mcu_load) refers to tjpgd.o(i.block_idct) for block_idct
    tjpgd.o(i.mcu_load) refers to tjpgd.o(.constdata) for .constdata
    tjpgd.o(i.mcu_output) refers to tjpgd.o(.constdata) for .constdata
    atk_frec.o(i.atk_frec_delete_data) refers to _printf_pad.o(.text) for _printf_pre_padding
    atk_frec.o(i.atk_frec_delete_data) refers to _printf_percent.o(.ARM.Collect$$_printf_percent$$00000000) for _printf_percent
    atk_frec.o(i.atk_frec_delete_data) refers to _printf_d.o(.ARM.Collect$$_printf_percent$$00000009) for _printf_d
    atk_frec.o(i.atk_frec_delete_data) refers to _printf_dec.o(.text) for _printf_int_dec
    atk_frec.o(i.atk_frec_delete_data) refers to atk_frec.o(i.atk_frec_malloc) for atk_frec_malloc
    atk_frec.o(i.atk_frec_delete_data) refers to noretval__2sprintf.o(.text) for __2sprintf
    atk_frec.o(i.atk_frec_delete_data) refers to ff.o(i.f_unlink) for f_unlink
    atk_frec.o(i.atk_frec_delete_data) refers to atk_frec.o(i.atk_frec_free) for atk_frec_free
    atk_frec.o(i.atk_frec_free) refers to malloc.o(i.myfree) for myfree
    atk_frec.o(i.atk_frec_malloc) refers to malloc.o(i.mymalloc) for mymalloc
    atk_frec.o(i.atk_frec_memset) refers to malloc.o(i.my_mem_set) for my_mem_set
    atk_frec.o(i.atk_frec_read_data) refers to _printf_pad.o(.text) for _printf_pre_padding
    atk_frec.o(i.atk_frec_read_data) refers to _printf_percent.o(.ARM.Collect$$_printf_percent$$00000000) for _printf_percent
    atk_frec.o(i.atk_frec_read_data) refers to _printf_d.o(.ARM.Collect$$_printf_percent$$00000009) for _printf_d
    atk_frec.o(i.atk_frec_read_data) refers to _printf_dec.o(.text) for _printf_int_dec
    atk_frec.o(i.atk_frec_read_data) refers to atk_frec.o(i.atk_frec_malloc) for atk_frec_malloc
    atk_frec.o(i.atk_frec_read_data) refers to atk_frec.o(i.atk_frec_free) for atk_frec_free
    atk_frec.o(i.atk_frec_read_data) refers to noretval__2sprintf.o(.text) for __2sprintf
    atk_frec.o(i.atk_frec_read_data) refers to ff.o(i.f_open) for f_open
    atk_frec.o(i.atk_frec_read_data) refers to ff.o(i.f_read) for f_read
    atk_frec.o(i.atk_frec_read_data) refers to ff.o(i.f_close) for f_close
    atk_frec.o(i.atk_frec_save_data) refers to _printf_pad.o(.text) for _printf_pre_padding
    atk_frec.o(i.atk_frec_save_data) refers to _printf_percent.o(.ARM.Collect$$_printf_percent$$00000000) for _printf_percent
    atk_frec.o(i.atk_frec_save_data) refers to _printf_d.o(.ARM.Collect$$_printf_percent$$00000009) for _printf_d
    atk_frec.o(i.atk_frec_save_data) refers to _printf_dec.o(.text) for _printf_int_dec
    atk_frec.o(i.atk_frec_save_data) refers to atk_frec.o(i.atk_frec_malloc) for atk_frec_malloc
    atk_frec.o(i.atk_frec_save_data) refers to atk_frec.o(i.atk_frec_free) for atk_frec_free
    atk_frec.o(i.atk_frec_save_data) refers to noretval__2sprintf.o(.text) for __2sprintf
    atk_frec.o(i.atk_frec_save_data) refers to ff.o(i.f_mkdir) for f_mkdir
    atk_frec.o(i.atk_frec_save_data) refers to ff.o(i.f_open) for f_open
    atk_frec.o(i.atk_frec_save_data) refers to ff.o(i.f_write) for f_write
    atk_frec.o(i.atk_frec_save_data) refers to ff.o(i.f_close) for f_close
    recog.o(i.atk_frec_add_a_face) refers to recog.o(i.atk_frec_binaryzation) for atk_frec_binaryzation
    recog.o(i.atk_frec_add_a_face) refers to atk_frec.o(i.atk_frec_read_data) for atk_frec_read_data
    recog.o(i.atk_frec_add_a_face) refers to dflt_clz.o(x$fpl$dfltu) for __aeabi_ui2d
    recog.o(i.atk_frec_add_a_face) refers to d2f.o(x$fpl$d2f) for __aeabi_d2f
    recog.o(i.atk_frec_add_a_face) refers to atk_frec.o(i.atk_frec_malloc) for atk_frec_malloc
    recog.o(i.atk_frec_add_a_face) refers to gabor.o(i.GaborFilteredImg) for GaborFilteredImg
    recog.o(i.atk_frec_add_a_face) refers to rt_memcpy_v6.o(.text) for __aeabi_memcpy
    recog.o(i.atk_frec_add_a_face) refers to atk_frec.o(i.atk_frec_save_data) for atk_frec_save_data
    recog.o(i.atk_frec_add_a_face) refers to atk_frec.o(i.atk_frec_free) for atk_frec_free
    recog.o(i.atk_frec_add_a_face) refers to gabor.o(.data) for img
    recog.o(i.atk_frec_binaryzation) refers to recog.o(i.atk_frec_normalization) for atk_frec_normalization
    recog.o(i.atk_frec_destroy) refers to gabor.o(i.GaborFilterFinialize) for GaborFilterFinialize
    recog.o(i.atk_frec_destroy) refers to atk_frec.o(i.atk_frec_free) for atk_frec_free
    recog.o(i.atk_frec_destroy) refers to recog.o(.bss) for model
    recog.o(i.atk_frec_destroy) refers to recog.o(.data) for projector
    recog.o(i.atk_frec_initialization) refers to gabor.o(i.GaborFilterInitialize) for GaborFilterInitialize
    recog.o(i.atk_frec_initialization) refers to atk_frec.o(i.atk_frec_malloc) for atk_frec_malloc
    recog.o(i.atk_frec_initialization) refers to recog.o(i.atk_frec_load_data_model) for atk_frec_load_data_model
    recog.o(i.atk_frec_initialization) refers to recog.o(i.atk_frec_destroy) for atk_frec_destroy
    recog.o(i.atk_frec_initialization) refers to recog.o(.bss) for model
    recog.o(i.atk_frec_initialization) refers to recog.o(.data) for projector
    recog.o(i.atk_frec_load_data_model) refers to atk_frec.o(i.atk_frec_read_data) for atk_frec_read_data
    recog.o(i.atk_frec_load_data_model) refers to recog.o(.bss) for model
    recog.o(i.atk_frec_load_data_model) refers to gabor.o(.data) for Fea
    recog.o(i.atk_frec_normalization) refers to atk_frec.o(i.atk_frec_memset) for atk_frec_memset
    recog.o(i.atk_frec_normalization) refers to recog.o(.data) for projector
    recog.o(i.atk_frec_recognition_face) refers to recog.o(i.atk_frec_binaryzation) for atk_frec_binaryzation
    recog.o(i.atk_frec_recognition_face) refers to gabor.o(i.GaborFilteredImg) for GaborFilteredImg
    recog.o(i.atk_frec_recognition_face) refers to recog.o(i.calcMoveDistMat) for calcMoveDistMat
    recog.o(i.atk_frec_recognition_face) refers to gabor.o(.data) for img
    recog.o(i.atk_frec_recognition_face) refers to recog.o(.bss) for model
    recog.o(i.calcMoveDistMat) refers to recog.o(i.calcOffsetDist) for calcOffsetDist
    recog.o(i.calcOffsetDist) refers to f2d.o(x$fpl$f2d) for __aeabi_f2d
    recog.o(i.calcOffsetDist) refers to sqrt.o(i.__hardfp_sqrt) for __hardfp_sqrt
    recog.o(i.calcOffsetDist) refers to d2f.o(x$fpl$d2f) for __aeabi_d2f
    recog.o(i.calcOffsetDist) refers to daddsub_clz.o(x$fpl$dadd) for __aeabi_dadd
    recog.o(i.calcOffsetDist) refers to drleqf.o(x$fpl$drleqf) for __aeabi_cdrcmple
    recog.o(i.calcOffsetDist) refers to dflt_clz.o(x$fpl$dflt) for __aeabi_i2d
    recog.o(i.calcOffsetDist) refers to dmul.o(x$fpl$dmul) for __aeabi_dmul
    recog.o(i.calcOffsetDist) refers to ddiv.o(x$fpl$ddiv) for __aeabi_ddiv
    gabor.o(i.Gabor) refers to ddiv.o(x$fpl$ddiv) for __aeabi_ddiv
    gabor.o(i.Gabor) refers to dflt_clz.o(x$fpl$dflt) for __aeabi_i2d
    gabor.o(i.Gabor) refers to pow.o(i.__hardfp_pow) for __hardfp_pow
    gabor.o(i.Gabor) refers to daddsub_clz.o(x$fpl$dsub) for __aeabi_dsub
    gabor.o(i.Gabor) refers to log.o(i.__hardfp_log) for __hardfp_log
    gabor.o(i.Gabor) refers to dmul.o(x$fpl$dmul) for __aeabi_dmul
    gabor.o(i.Gabor) refers to sqrt.o(i.__hardfp_sqrt) for __hardfp_sqrt
    gabor.o(i.Gabor) refers to daddsub_clz.o(x$fpl$dadd) for __aeabi_dadd
    gabor.o(i.Gabor) refers to tan.o(i.__hardfp_tan) for __hardfp_tan
    gabor.o(i.Gabor) refers to cos.o(i.__hardfp_cos) for __hardfp_cos
    gabor.o(i.Gabor) refers to sin.o(i.__hardfp_sin) for __hardfp_sin
    gabor.o(i.Gabor) refers to exp.o(i.__hardfp_exp) for __hardfp_exp
    gabor.o(i.Gabor) refers to d2f.o(x$fpl$d2f) for __aeabi_d2f
    gabor.o(i.Gabor) refers to f2d.o(x$fpl$f2d) for __aeabi_f2d
    gabor.o(i.GaborFilterFinialize) refers to dflt_clz.o(x$fpl$dflt) for __aeabi_i2d
    gabor.o(i.GaborFilterFinialize) refers to dmul.o(x$fpl$dmul) for __aeabi_dmul
    gabor.o(i.GaborFilterFinialize) refers to daddsub_clz.o(x$fpl$dadd) for __aeabi_dadd
    gabor.o(i.GaborFilterFinialize) refers to matrix.o(i.__hardfp_log2) for __hardfp_log2
    gabor.o(i.GaborFilterFinialize) refers to ceil.o(i.__hardfp_ceil) for __hardfp_ceil
    gabor.o(i.GaborFilterFinialize) refers to pow.o(i.__hardfp_pow) for __hardfp_pow
    gabor.o(i.GaborFilterFinialize) refers to dfix.o(x$fpl$dfix) for __aeabi_d2iz
    gabor.o(i.GaborFilterFinialize) refers to matrix.o(i.FreeMatrix) for FreeMatrix
    gabor.o(i.GaborFilterFinialize) refers to matrix.o(i.Mat_FFT_Mem_Free) for Mat_FFT_Mem_Free
    gabor.o(i.GaborFilterFinialize) refers to gabor.o(.data) for xs
    gabor.o(i.GaborFilterInitialize) refers to dflt_clz.o(x$fpl$dflt) for __aeabi_i2d
    gabor.o(i.GaborFilterInitialize) refers to dmul.o(x$fpl$dmul) for __aeabi_dmul
    gabor.o(i.GaborFilterInitialize) refers to daddsub_clz.o(x$fpl$dadd) for __aeabi_dadd
    gabor.o(i.GaborFilterInitialize) refers to matrix.o(i.__hardfp_log2) for __hardfp_log2
    gabor.o(i.GaborFilterInitialize) refers to ceil.o(i.__hardfp_ceil) for __hardfp_ceil
    gabor.o(i.GaborFilterInitialize) refers to pow.o(i.__hardfp_pow) for __hardfp_pow
    gabor.o(i.GaborFilterInitialize) refers to dfix.o(x$fpl$dfix) for __aeabi_d2iz
    gabor.o(i.GaborFilterInitialize) refers to matrix.o(i.CreateMatrix) for CreateMatrix
    gabor.o(i.GaborFilterInitialize) refers to gabor.o(i.printMatrixCreate) for printMatrixCreate
    gabor.o(i.GaborFilterInitialize) refers to matrix.o(i.Mat_FFT_Mem_Init) for Mat_FFT_Mem_Init
    gabor.o(i.GaborFilterInitialize) refers to gabor.o(.data) for xs
    gabor.o(i.GaborFilteredImg) refers to matrix.o(i.Mat_Zeros) for Mat_Zeros
    gabor.o(i.GaborFilteredImg) refers to matrix.o(i.Mat_FFT2) for Mat_FFT2
    gabor.o(i.GaborFilteredImg) refers to gabor.o(i.Gabor) for Gabor
    gabor.o(i.GaborFilteredImg) refers to matrix.o(i.Mat_Copy) for Mat_Copy
    gabor.o(i.GaborFilteredImg) refers to matrix.o(i.Mat_Product) for Mat_Product
    gabor.o(i.GaborFilteredImg) refers to matrix.o(i.Mat_Substract) for Mat_Substract
    gabor.o(i.GaborFilteredImg) refers to matrix.o(i.Mat_Sum) for Mat_Sum
    gabor.o(i.GaborFilteredImg) refers to matrix.o(i.Mat_IFFT2) for Mat_IFFT2
    gabor.o(i.GaborFilteredImg) refers to gabor.o(.data) for IMG
    matrix.o(i.CreateMatrix) refers to atk_frec.o(i.atk_frec_malloc) for atk_frec_malloc
    matrix.o(i.CreateMatrix) refers to atk_frec.o(i.atk_frec_memset) for atk_frec_memset
    matrix.o(i.CreateMatrix) refers to atk_frec.o(i.atk_frec_free) for atk_frec_free
    matrix.o(i.FreeMatrix) refers to atk_frec.o(i.atk_frec_free) for atk_frec_free
    matrix.o(i.Mat_FFT2) refers to matrix.o(i.four2) for four2
    matrix.o(i.Mat_FFT2) refers to matrix.o(.data) for R
    matrix.o(i.Mat_FFT_Mem_Free) refers to matrix.o(i.free_matrix) for free_matrix
    matrix.o(i.Mat_FFT_Mem_Free) refers to matrix.o(i.free_vector) for free_vector
    matrix.o(i.Mat_FFT_Mem_Free) refers to matrix.o(.data) for R
    matrix.o(i.Mat_FFT_Mem_Init) refers to matrix.o(i.matrix) for matrix
    matrix.o(i.Mat_FFT_Mem_Init) refers to matrix.o(i.vector) for vector
    matrix.o(i.Mat_FFT_Mem_Init) refers to matrix.o(.data) for R
    matrix.o(i.Mat_IFFT2) refers to matrix.o(i.four2) for four2
    matrix.o(i.Mat_IFFT2) refers to matrix.o(.data) for R
    matrix.o(i.__hardfp_log2) refers to log10.o(i.__hardfp_log10) for __hardfp_log10
    matrix.o(i.__hardfp_log2) refers to ddiv.o(x$fpl$ddiv) for __aeabi_ddiv
    matrix.o(i.four1) refers to dflt_clz.o(x$fpl$dflt) for __aeabi_i2d
    matrix.o(i.four1) refers to ddiv.o(x$fpl$ddiv) for __aeabi_ddiv
    matrix.o(i.four1) refers to dmul.o(x$fpl$dmul) for __aeabi_dmul
    matrix.o(i.four1) refers to sin.o(i.__hardfp_sin) for __hardfp_sin
    matrix.o(i.four1) refers to f2d.o(x$fpl$f2d) for __aeabi_f2d
    matrix.o(i.four1) refers to daddsub_clz.o(x$fpl$dsub) for __aeabi_dsub
    matrix.o(i.four1) refers to d2f.o(x$fpl$d2f) for __aeabi_d2f
    matrix.o(i.four1) refers to daddsub_clz.o(x$fpl$dadd) for __aeabi_dadd
    matrix.o(i.four2) refers to matrix.o(i.four1) for four1
    matrix.o(i.four2) refers to matrix.o(.data) for tmp1
    matrix.o(i.free_matrix) refers to atk_frec.o(i.atk_frec_free) for atk_frec_free
    matrix.o(i.free_vector) refers to atk_frec.o(i.atk_frec_free) for atk_frec_free
    matrix.o(i.matrix) refers to atk_frec.o(i.atk_frec_malloc) for atk_frec_malloc
    matrix.o(i.vector) refers to atk_frec.o(i.atk_frec_malloc) for atk_frec_malloc
    matrix.o(i.vector) refers to atk_frec.o(i.atk_frec_memset) for atk_frec_memset
    use_no_semi_2.o(.text) refers (Special) to use_no_semi.o(.text) for __use_no_semihosting_swi
    llsdiv.o(.text) refers to lludivv7m.o(.text) for __aeabi_uldivmod
    __2printf.o(.text) refers to _printf_char_file.o(.text) for _printf_char_file
    __2printf.o(.text) refers to usart.o(.data) for __stdout
    __2sprintf.o(.text) refers to _printf_char_common.o(.text) for _printf_char_common
    __2sprintf.o(.text) refers to _sputc.o(.text) for _sputc
    noretval__2printf.o(.text) refers to _printf_char_file.o(.text) for _printf_char_file
    noretval__2printf.o(.text) refers to usart.o(.data) for __stdout
    noretval__2sprintf.o(.text) refers to _printf_char_common.o(.text) for _printf_char_common
    noretval__2sprintf.o(.text) refers to _sputc.o(.text) for _sputc
    __printf.o(.text) refers to _printf_percent.o(.ARM.Collect$$_printf_percent$$00000000) for _printf_percent
    _printf_str.o(.text) refers (Special) to _printf_char.o(.text) for _printf_cs_common
    _printf_str.o(.text) refers (Weak) to _printf_pad.o(.text) for _printf_pre_padding
    _printf_str.o(.text) refers (Weak) to _printf_pad.o(.text) for _printf_post_padding
    _printf_dec.o(.text) refers to _printf_intcommon.o(.text) for _printf_int_common
    _printf_longlong_dec.o(.text) refers to lludiv10.o(.text) for _ll_udiv10
    _printf_longlong_dec.o(.text) refers to _printf_intcommon.o(.text) for _printf_int_common
    _printf_hex_ll.o(.text) refers to _printf_intcommon.o(.text) for _printf_int_common
    _printf_hex_ll.o(.text) refers to _printf_hex_ll.o(.constdata) for .constdata
    _printf_hex_int.o(.text) refers to _printf_intcommon.o(.text) for _printf_int_common
    _printf_hex_int.o(.text) refers to _printf_hex_int.o(.constdata) for .constdata
    _printf_hex_int_ll.o(.text) refers to _printf_intcommon.o(.text) for _printf_int_common
    _printf_hex_int_ll.o(.text) refers to _printf_hex_int_ll.o(.constdata) for .constdata
    _printf_hex_ptr.o(.text) refers to _printf_intcommon.o(.text) for _printf_int_common
    _printf_hex_ptr.o(.text) refers to _printf_hex_ptr.o(.constdata) for .constdata
    _printf_hex_int_ptr.o(.text) refers to _printf_intcommon.o(.text) for _printf_int_common
    _printf_hex_int_ptr.o(.text) refers to _printf_hex_int_ptr.o(.constdata) for .constdata
    _printf_hex_ll_ptr.o(.text) refers to _printf_intcommon.o(.text) for _printf_int_common
    _printf_hex_ll_ptr.o(.text) refers to _printf_hex_ll_ptr.o(.constdata) for .constdata
    _printf_hex_int_ll_ptr.o(.text) refers to _printf_intcommon.o(.text) for _printf_int_common
    _printf_hex_int_ll_ptr.o(.text) refers to _printf_hex_int_ll_ptr.o(.constdata) for .constdata
    __printf_flags.o(.text) refers to _printf_percent.o(.ARM.Collect$$_printf_percent$$00000000) for _printf_percent
    __printf_flags.o(.text) refers to __printf_flags.o(.constdata) for .constdata
    __printf_ss.o(.text) refers to _printf_percent.o(.ARM.Collect$$_printf_percent$$00000000) for _printf_percent
    __printf_flags_ss.o(.text) refers to _printf_percent.o(.ARM.Collect$$_printf_percent$$00000000) for _printf_percent
    __printf_flags_ss.o(.text) refers to __printf_flags_ss.o(.constdata) for .constdata
    __printf_wp.o(.text) refers to __printf_wp.o(i._is_digit) for _is_digit
    __printf_wp.o(.text) refers to _printf_percent.o(.ARM.Collect$$_printf_percent$$00000000) for _printf_percent
    __printf_flags_wp.o(.text) refers to __printf_wp.o(i._is_digit) for _is_digit
    __printf_flags_wp.o(.text) refers to _printf_percent.o(.ARM.Collect$$_printf_percent$$00000000) for _printf_percent
    __printf_flags_wp.o(.text) refers to __printf_flags_wp.o(.constdata) for .constdata
    __printf_ss_wp.o(.text) refers to __printf_wp.o(i._is_digit) for _is_digit
    __printf_ss_wp.o(.text) refers to _printf_percent.o(.ARM.Collect$$_printf_percent$$00000000) for _printf_percent
    __printf_flags_ss_wp.o(.text) refers to __printf_wp.o(i._is_digit) for _is_digit
    __printf_flags_ss_wp.o(.text) refers to _printf_percent.o(.ARM.Collect$$_printf_percent$$00000000) for _printf_percent
    __printf_flags_ss_wp.o(.text) refers to __printf_flags_ss_wp.o(.constdata) for .constdata
    _printf_c.o(.ARM.Collect$$_printf_percent$$00000013) refers (Weak) to _printf_char.o(.text) for _printf_char
    _printf_s.o(.ARM.Collect$$_printf_percent$$00000014) refers (Weak) to _printf_char.o(.text) for _printf_string
    _printf_x.o(.ARM.Collect$$_printf_percent$$0000000C) refers (Weak) to _printf_hex_int.o(.text) for _printf_int_hex
    _printf_d.o(.ARM.Collect$$_printf_percent$$00000009) refers (Weak) to _printf_dec.o(.text) for _printf_int_dec
    _printf_u.o(.ARM.Collect$$_printf_percent$$0000000A) refers (Weak) to _printf_dec.o(.text) for _printf_int_dec
    _printf_percent.o(.ARM.Collect$$_printf_percent$$00000000) refers (Special) to _printf_percent_end.o(.ARM.Collect$$_printf_percent$$00000017) for _printf_percent_end
    _printf_lld.o(.ARM.Collect$$_printf_percent$$0000000E) refers (Special) to _printf_ll.o(.ARM.Collect$$_printf_percent$$00000007) for _printf_ll
    _printf_lld.o(.ARM.Collect$$_printf_percent$$0000000E) refers (Weak) to _printf_longlong_dec.o(.text) for _printf_longlong_dec
    rt_memcpy_v6.o(.text) refers to rt_memcpy_w.o(.text) for __aeabi_memcpy4
    aeabi_memset.o(.text) refers to rt_memclr.o(.text) for _memset
    rt_memclr.o(.text) refers to rt_memclr_w.o(.text) for _memset_w
    __main.o(!!!main) refers to __rtentry.o(.ARM.Collect$$rtentry$$00000000) for __rt_entry
    d2f.o(x$fpl$d2f) refers (Special) to usenofp.o(x$fpl$usenofp) for __I$use$fp
    d2f.o(x$fpl$d2f) refers to fretinf.o(x$fpl$fretinf) for __fpl_fretinf
    d2f.o(x$fpl$d2f) refers to dnaninf.o(x$fpl$dnaninf) for __fpl_dnaninf
    daddsub_clz.o(x$fpl$dadd) refers (Special) to usenofp.o(x$fpl$usenofp) for __I$use$fp
    daddsub_clz.o(x$fpl$dadd) refers to daddsub_clz.o(x$fpl$dsub) for _dsub1
    daddsub_clz.o(x$fpl$dadd) refers to dretinf.o(x$fpl$dretinf) for __fpl_dretinf
    daddsub_clz.o(x$fpl$dadd) refers to dnaninf.o(x$fpl$dnaninf) for __fpl_dnaninf
    daddsub_clz.o(x$fpl$drsb) refers (Special) to usenofp.o(x$fpl$usenofp) for __I$use$fp
    daddsub_clz.o(x$fpl$drsb) refers to daddsub_clz.o(x$fpl$dadd) for _dadd1
    daddsub_clz.o(x$fpl$drsb) refers to daddsub_clz.o(x$fpl$dsub) for _dsub1
    daddsub_clz.o(x$fpl$dsub) refers (Special) to usenofp.o(x$fpl$usenofp) for __I$use$fp
    daddsub_clz.o(x$fpl$dsub) refers to daddsub_clz.o(x$fpl$dadd) for _dadd1
    daddsub_clz.o(x$fpl$dsub) refers to dnaninf.o(x$fpl$dnaninf) for __fpl_dnaninf
    ddiv.o(x$fpl$drdiv) refers (Special) to usenofp.o(x$fpl$usenofp) for __I$use$fp
    ddiv.o(x$fpl$drdiv) refers to ddiv.o(x$fpl$ddiv) for ddiv_entry
    ddiv.o(x$fpl$ddiv) refers (Special) to usenofp.o(x$fpl$usenofp) for __I$use$fp
    ddiv.o(x$fpl$ddiv) refers to dretinf.o(x$fpl$dretinf) for __fpl_dretinf
    ddiv.o(x$fpl$ddiv) refers to dnaninf.o(x$fpl$dnaninf) for __fpl_dnaninf
    dfix.o(x$fpl$dfix) refers (Special) to usenofp.o(x$fpl$usenofp) for __I$use$fp
    dfix.o(x$fpl$dfix) refers to dnaninf.o(x$fpl$dnaninf) for __fpl_dnaninf
    dfix.o(x$fpl$dfixr) refers (Special) to usenofp.o(x$fpl$usenofp) for __I$use$fp
    dfix.o(x$fpl$dfixr) refers to dnaninf.o(x$fpl$dnaninf) for __fpl_dnaninf
    dfixu.o(x$fpl$dfixu) refers (Special) to usenofp.o(x$fpl$usenofp) for __I$use$fp
    dfixu.o(x$fpl$dfixu) refers to dnaninf.o(x$fpl$dnaninf) for __fpl_dnaninf
    dfixu.o(x$fpl$dfixur) refers (Special) to usenofp.o(x$fpl$usenofp) for __I$use$fp
    dfixu.o(x$fpl$dfixur) refers to dnaninf.o(x$fpl$dnaninf) for __fpl_dnaninf
    dflt_clz.o(x$fpl$dfltu) refers (Special) to usenofp.o(x$fpl$usenofp) for __I$use$fp
    dflt_clz.o(x$fpl$dflt) refers (Special) to usenofp.o(x$fpl$usenofp) for __I$use$fp
    dflt_clz.o(x$fpl$dfltn) refers (Special) to usenofp.o(x$fpl$usenofp) for __I$use$fp
    dmul.o(x$fpl$dmul) refers (Special) to usenofp.o(x$fpl$usenofp) for __I$use$fp
    dmul.o(x$fpl$dmul) refers to dretinf.o(x$fpl$dretinf) for __fpl_dretinf
    dmul.o(x$fpl$dmul) refers to dnaninf.o(x$fpl$dnaninf) for __fpl_dnaninf
    drleqf.o(x$fpl$drleqf) refers (Special) to usenofp.o(x$fpl$usenofp) for __I$use$fp
    drleqf.o(x$fpl$drleqf) refers to dleqf.o(x$fpl$dleqf) for __fpl_dcmple_InfNaN
    f2d.o(x$fpl$f2d) refers (Special) to usenofp.o(x$fpl$usenofp) for __I$use$fp
    f2d.o(x$fpl$f2d) refers to fnaninf.o(x$fpl$fnaninf) for __fpl_fnaninf
    f2d.o(x$fpl$f2d) refers to dretinf.o(x$fpl$dretinf) for __fpl_dretinf
    ceil.o(i.__hardfp_ceil) refers (Special) to usenofp.o(x$fpl$usenofp) for __I$use$fp
    ceil.o(i.__hardfp_ceil) refers to daddsub_clz.o(x$fpl$dadd) for __aeabi_dadd
    ceil.o(i.__hardfp_ceil) refers to drleqf.o(x$fpl$drleqf) for __aeabi_cdrcmple
    ceil.o(i.__hardfp_ceil) refers to daddsub_clz.o(x$fpl$drsb) for __aeabi_drsub
    ceil.o(i.__softfp_ceil) refers (Special) to usenofp.o(x$fpl$usenofp) for __I$use$fp
    ceil.o(i.__softfp_ceil) refers to ceil.o(i.__hardfp_ceil) for __hardfp_ceil
    ceil.o(i.ceil) refers (Special) to usenofp.o(x$fpl$usenofp) for __I$use$fp
    ceil.o(i.ceil) refers to ceil.o(i.__hardfp_ceil) for __hardfp_ceil
    cos.o(i.__hardfp_cos) refers (Special) to usenofp.o(x$fpl$usenofp) for __I$use$fp
    cos.o(i.__hardfp_cos) refers to _rserrno.o(.text) for __set_errno
    cos.o(i.__hardfp_cos) refers to dunder.o(i.__mathlib_dbl_invalid) for __mathlib_dbl_invalid
    cos.o(i.__hardfp_cos) refers to dunder.o(i.__mathlib_dbl_infnan) for __mathlib_dbl_infnan
    cos.o(i.__hardfp_cos) refers to rred.o(i.__ieee754_rem_pio2) for __ieee754_rem_pio2
    cos.o(i.__hardfp_cos) refers to sin_i.o(i.__kernel_sin) for __kernel_sin
    cos.o(i.__hardfp_cos) refers to cos_i.o(i.__kernel_cos) for __kernel_cos
    cos.o(i.__hardfp_cos) refers to basic.o(x$fpl$basic) for __aeabi_dneg
    cos.o(i.__softfp_cos) refers (Special) to usenofp.o(x$fpl$usenofp) for __I$use$fp
    cos.o(i.__softfp_cos) refers to cos.o(i.__hardfp_cos) for __hardfp_cos
    cos.o(i.cos) refers (Special) to usenofp.o(x$fpl$usenofp) for __I$use$fp
    cos.o(i.cos) refers to cos.o(i.__hardfp_cos) for __hardfp_cos
    cos_x.o(i.____hardfp_cos$lsc) refers (Special) to usenofp.o(x$fpl$usenofp) for __I$use$fp
    cos_x.o(i.____hardfp_cos$lsc) refers to _rserrno.o(.text) for __set_errno
    cos_x.o(i.____hardfp_cos$lsc) refers to dunder.o(i.__mathlib_dbl_infnan) for __mathlib_dbl_infnan
    cos_x.o(i.____hardfp_cos$lsc) refers to rred.o(i.__ieee754_rem_pio2) for __ieee754_rem_pio2
    cos_x.o(i.____hardfp_cos$lsc) refers to sin_i.o(i.__kernel_sin) for __kernel_sin
    cos_x.o(i.____hardfp_cos$lsc) refers to cos_i.o(i.__kernel_cos) for __kernel_cos
    cos_x.o(i.____hardfp_cos$lsc) refers to basic.o(x$fpl$basic) for __aeabi_dneg
    cos_x.o(i.____softfp_cos$lsc) refers (Special) to usenofp.o(x$fpl$usenofp) for __I$use$fp
    cos_x.o(i.____softfp_cos$lsc) refers to cos_x.o(i.____hardfp_cos$lsc) for ____hardfp_cos$lsc
    cos_x.o(i.__cos$lsc) refers (Special) to usenofp.o(x$fpl$usenofp) for __I$use$fp
    cos_x.o(i.__cos$lsc) refers to cos_x.o(i.____hardfp_cos$lsc) for ____hardfp_cos$lsc
    exp.o(i.__hardfp_exp) refers (Special) to usenofp.o(x$fpl$usenofp) for __I$use$fp
    exp.o(i.__hardfp_exp) refers to dunder.o(i.__mathlib_dbl_infnan) for __mathlib_dbl_infnan
    exp.o(i.__hardfp_exp) refers to drleqf.o(x$fpl$drleqf) for __aeabi_cdrcmple
    exp.o(i.__hardfp_exp) refers to _rserrno.o(.text) for __set_errno
    exp.o(i.__hardfp_exp) refers to dunder.o(i.__mathlib_dbl_overflow) for __mathlib_dbl_overflow
    exp.o(i.__hardfp_exp) refers to dleqf.o(x$fpl$dleqf) for __aeabi_cdcmple
    exp.o(i.__hardfp_exp) refers to dunder.o(i.__mathlib_dbl_underflow) for __mathlib_dbl_underflow
    exp.o(i.__hardfp_exp) refers to daddsub_clz.o(x$fpl$dsub) for __aeabi_dsub
    exp.o(i.__hardfp_exp) refers to dmul.o(x$fpl$dmul) for __aeabi_dmul
    exp.o(i.__hardfp_exp) refers to daddsub_clz.o(x$fpl$dadd) for __aeabi_dadd
    exp.o(i.__hardfp_exp) refers to dfix.o(x$fpl$dfix) for __aeabi_d2iz
    exp.o(i.__hardfp_exp) refers to dflt_clz.o(x$fpl$dflt) for __aeabi_i2d
    exp.o(i.__hardfp_exp) refers to daddsub_clz.o(x$fpl$drsb) for __aeabi_drsub
    exp.o(i.__hardfp_exp) refers to poly.o(i.__kernel_poly) for __kernel_poly
    exp.o(i.__hardfp_exp) refers to ddiv.o(x$fpl$ddiv) for __aeabi_ddiv
    exp.o(i.__hardfp_exp) refers to fpclassify.o(i.__ARM_fpclassify) for __ARM_fpclassify
    exp.o(i.__hardfp_exp) refers to exp.o(.constdata) for .constdata
    exp.o(i.__softfp_exp) refers (Special) to usenofp.o(x$fpl$usenofp) for __I$use$fp
    exp.o(i.__softfp_exp) refers to exp.o(i.__hardfp_exp) for __hardfp_exp
    exp.o(i.exp) refers (Special) to usenofp.o(x$fpl$usenofp) for __I$use$fp
    exp.o(i.exp) refers to exp.o(i.__hardfp_exp) for __hardfp_exp
    exp.o(.constdata) refers (Special) to usenofp.o(x$fpl$usenofp) for __I$use$fp
    exp_x.o(i.____hardfp_exp$lsc) refers (Special) to usenofp.o(x$fpl$usenofp) for __I$use$fp
    exp_x.o(i.____hardfp_exp$lsc) refers to dunder.o(i.__mathlib_dbl_infnan) for __mathlib_dbl_infnan
    exp_x.o(i.____hardfp_exp$lsc) refers to drleqf.o(x$fpl$drleqf) for __aeabi_cdrcmple
    exp_x.o(i.____hardfp_exp$lsc) refers to _rserrno.o(.text) for __set_errno
    exp_x.o(i.____hardfp_exp$lsc) refers to dleqf.o(x$fpl$dleqf) for __aeabi_cdcmple
    exp_x.o(i.____hardfp_exp$lsc) refers to daddsub_clz.o(x$fpl$dsub) for __aeabi_dsub
    exp_x.o(i.____hardfp_exp$lsc) refers to dmul.o(x$fpl$dmul) for __aeabi_dmul
    exp_x.o(i.____hardfp_exp$lsc) refers to daddsub_clz.o(x$fpl$dadd) for __aeabi_dadd
    exp_x.o(i.____hardfp_exp$lsc) refers to dfix.o(x$fpl$dfix) for __aeabi_d2iz
    exp_x.o(i.____hardfp_exp$lsc) refers to dflt_clz.o(x$fpl$dflt) for __aeabi_i2d
    exp_x.o(i.____hardfp_exp$lsc) refers to daddsub_clz.o(x$fpl$drsb) for __aeabi_drsub
    exp_x.o(i.____hardfp_exp$lsc) refers to poly.o(i.__kernel_poly) for __kernel_poly
    exp_x.o(i.____hardfp_exp$lsc) refers to ddiv.o(x$fpl$ddiv) for __aeabi_ddiv
    exp_x.o(i.____hardfp_exp$lsc) refers to qnan.o(.constdata) for __mathlib_zero
    exp_x.o(i.____hardfp_exp$lsc) refers to exp_x.o(.constdata) for .constdata
    exp_x.o(i.____softfp_exp$lsc) refers (Special) to usenofp.o(x$fpl$usenofp) for __I$use$fp
    exp_x.o(i.____softfp_exp$lsc) refers to exp_x.o(i.____hardfp_exp$lsc) for ____hardfp_exp$lsc
    exp_x.o(i.__exp$lsc) refers (Special) to usenofp.o(x$fpl$usenofp) for __I$use$fp
    exp_x.o(i.__exp$lsc) refers to exp_x.o(i.____hardfp_exp$lsc) for ____hardfp_exp$lsc
    exp_x.o(.constdata) refers (Special) to usenofp.o(x$fpl$usenofp) for __I$use$fp
    log.o(i.__hardfp_log) refers (Special) to usenofp.o(x$fpl$usenofp) for __I$use$fp
    log.o(i.__hardfp_log) refers to dunder.o(i.__mathlib_dbl_infnan) for __mathlib_dbl_infnan
    log.o(i.__hardfp_log) refers to _rserrno.o(.text) for __set_errno
    log.o(i.__hardfp_log) refers to dunder.o(i.__mathlib_dbl_invalid) for __mathlib_dbl_invalid
    log.o(i.__hardfp_log) refers to dunder.o(i.__mathlib_dbl_divzero) for __mathlib_dbl_divzero
    log.o(i.__hardfp_log) refers to basic.o(x$fpl$basic) for __aeabi_dneg
    log.o(i.__hardfp_log) refers to dmul.o(x$fpl$dmul) for __aeabi_dmul
    log.o(i.__hardfp_log) refers to daddsub_clz.o(x$fpl$dsub) for __aeabi_dsub
    log.o(i.__hardfp_log) refers to deqf.o(x$fpl$deqf) for __aeabi_cdcmpeq
    log.o(i.__hardfp_log) refers to dflt_clz.o(x$fpl$dflt) for __aeabi_i2d
    log.o(i.__hardfp_log) refers to daddsub_clz.o(x$fpl$dadd) for __aeabi_dadd
    log.o(i.__hardfp_log) refers to daddsub_clz.o(x$fpl$drsb) for __aeabi_drsub
    log.o(i.__hardfp_log) refers to ddiv.o(x$fpl$ddiv) for __aeabi_ddiv
    log.o(i.__hardfp_log) refers to poly.o(i.__kernel_poly) for __kernel_poly
    log.o(i.__hardfp_log) refers to qnan.o(.constdata) for __mathlib_zero
    log.o(i.__hardfp_log) refers to log.o(.constdata) for .constdata
    log.o(i.__softfp_log) refers (Special) to usenofp.o(x$fpl$usenofp) for __I$use$fp
    log.o(i.__softfp_log) refers to log.o(i.__hardfp_log) for __hardfp_log
    log.o(i.log) refers (Special) to usenofp.o(x$fpl$usenofp) for __I$use$fp
    log.o(i.log) refers to log.o(i.__hardfp_log) for __hardfp_log
    log.o(.constdata) refers (Special) to usenofp.o(x$fpl$usenofp) for __I$use$fp
    log_x.o(i.____hardfp_log$lsc) refers (Special) to usenofp.o(x$fpl$usenofp) for __I$use$fp
    log_x.o(i.____hardfp_log$lsc) refers to dunder.o(i.__mathlib_dbl_infnan) for __mathlib_dbl_infnan
    log_x.o(i.____hardfp_log$lsc) refers to _rserrno.o(.text) for __set_errno
    log_x.o(i.____hardfp_log$lsc) refers to dmul.o(x$fpl$dmul) for __aeabi_dmul
    log_x.o(i.____hardfp_log$lsc) refers to daddsub_clz.o(x$fpl$dsub) for __aeabi_dsub
    log_x.o(i.____hardfp_log$lsc) refers to deqf.o(x$fpl$deqf) for __aeabi_cdcmpeq
    log_x.o(i.____hardfp_log$lsc) refers to dflt_clz.o(x$fpl$dflt) for __aeabi_i2d
    log_x.o(i.____hardfp_log$lsc) refers to daddsub_clz.o(x$fpl$dadd) for __aeabi_dadd
    log_x.o(i.____hardfp_log$lsc) refers to daddsub_clz.o(x$fpl$drsb) for __aeabi_drsub
    log_x.o(i.____hardfp_log$lsc) refers to ddiv.o(x$fpl$ddiv) for __aeabi_ddiv
    log_x.o(i.____hardfp_log$lsc) refers to poly.o(i.__kernel_poly) for __kernel_poly
    log_x.o(i.____hardfp_log$lsc) refers to qnan.o(.constdata) for __mathlib_zero
    log_x.o(i.____hardfp_log$lsc) refers to log_x.o(.constdata) for .constdata
    log_x.o(i.____softfp_log$lsc) refers (Special) to usenofp.o(x$fpl$usenofp) for __I$use$fp
    log_x.o(i.____softfp_log$lsc) refers to log_x.o(i.____hardfp_log$lsc) for ____hardfp_log$lsc
    log_x.o(i.__log$lsc) refers (Special) to usenofp.o(x$fpl$usenofp) for __I$use$fp
    log_x.o(i.__log$lsc) refers to log_x.o(i.____hardfp_log$lsc) for ____hardfp_log$lsc
    log_x.o(.constdata) refers (Special) to usenofp.o(x$fpl$usenofp) for __I$use$fp
    log10.o(i.__hardfp_log10) refers (Special) to usenofp.o(x$fpl$usenofp) for __I$use$fp
    log10.o(i.__hardfp_log10) refers to dunder.o(i.__mathlib_dbl_infnan) for __mathlib_dbl_infnan
    log10.o(i.__hardfp_log10) refers to _rserrno.o(.text) for __set_errno
    log10.o(i.__hardfp_log10) refers to dunder.o(i.__mathlib_dbl_invalid) for __mathlib_dbl_invalid
    log10.o(i.__hardfp_log10) refers to dunder.o(i.__mathlib_dbl_divzero) for __mathlib_dbl_divzero
    log10.o(i.__hardfp_log10) refers to basic.o(x$fpl$basic) for __aeabi_dneg
    log10.o(i.__hardfp_log10) refers to dmul.o(x$fpl$dmul) for __aeabi_dmul
    log10.o(i.__hardfp_log10) refers to dflt_clz.o(x$fpl$dflt) for __aeabi_i2d
    log10.o(i.__hardfp_log10) refers to log.o(i.log) for log
    log10.o(i.__hardfp_log10) refers to daddsub_clz.o(x$fpl$dadd) for __aeabi_dadd
    log10.o(i.__softfp_log10) refers (Special) to usenofp.o(x$fpl$usenofp) for __I$use$fp
    log10.o(i.__softfp_log10) refers to log10.o(i.__hardfp_log10) for __hardfp_log10
    log10.o(i.log10) refers (Special) to usenofp.o(x$fpl$usenofp) for __I$use$fp
    log10.o(i.log10) refers to log10.o(i.__hardfp_log10) for __hardfp_log10
    log10_x.o(i.____hardfp_log10$lsc) refers (Special) to usenofp.o(x$fpl$usenofp) for __I$use$fp
    log10_x.o(i.____hardfp_log10$lsc) refers to dunder.o(i.__mathlib_dbl_infnan) for __mathlib_dbl_infnan
    log10_x.o(i.____hardfp_log10$lsc) refers to _rserrno.o(.text) for __set_errno
    log10_x.o(i.____hardfp_log10$lsc) refers to dmul.o(x$fpl$dmul) for __aeabi_dmul
    log10_x.o(i.____hardfp_log10$lsc) refers to dflt_clz.o(x$fpl$dflt) for __aeabi_i2d
    log10_x.o(i.____hardfp_log10$lsc) refers to log.o(i.log) for log
    log10_x.o(i.____hardfp_log10$lsc) refers to daddsub_clz.o(x$fpl$dadd) for __aeabi_dadd
    log10_x.o(i.____softfp_log10$lsc) refers (Special) to usenofp.o(x$fpl$usenofp) for __I$use$fp
    log10_x.o(i.____softfp_log10$lsc) refers to log10_x.o(i.____hardfp_log10$lsc) for ____hardfp_log10$lsc
    log10_x.o(i.__log10$lsc) refers (Special) to usenofp.o(x$fpl$usenofp) for __I$use$fp
    log10_x.o(i.__log10$lsc) refers to log10_x.o(i.____hardfp_log10$lsc) for ____hardfp_log10$lsc
    pow.o(i.__hardfp_pow) refers (Special) to usenofp.o(x$fpl$usenofp) for __I$use$fp
    pow.o(i.__hardfp_pow) refers to dunder.o(i.__mathlib_dbl_infnan2) for __mathlib_dbl_infnan2
    pow.o(i.__hardfp_pow) refers to _rserrno.o(.text) for __set_errno
    pow.o(i.__hardfp_pow) refers to dunder.o(i.__mathlib_dbl_divzero) for __mathlib_dbl_divzero
    pow.o(i.__hardfp_pow) refers to basic.o(x$fpl$basic) for __aeabi_dneg
    pow.o(i.__hardfp_pow) refers to dunder.o(i.__mathlib_dbl_overflow) for __mathlib_dbl_overflow
    pow.o(i.__hardfp_pow) refers to ddiv.o(x$fpl$ddiv) for __aeabi_ddiv
    pow.o(i.__hardfp_pow) refers to sqrt.o(i.sqrt) for sqrt
    pow.o(i.__hardfp_pow) refers to fabs.o(i.fabs) for fabs
    pow.o(i.__hardfp_pow) refers to dflt_clz.o(x$fpl$dflt) for __aeabi_i2d
    pow.o(i.__hardfp_pow) refers to dunder.o(i.__mathlib_dbl_invalid) for __mathlib_dbl_invalid
    pow.o(i.__hardfp_pow) refers to dmul.o(x$fpl$dmul) for __aeabi_dmul
    pow.o(i.__hardfp_pow) refers to dunder.o(i.__mathlib_dbl_underflow) for __mathlib_dbl_underflow
    pow.o(i.__hardfp_pow) refers to daddsub_clz.o(x$fpl$dsub) for __aeabi_dsub
    pow.o(i.__hardfp_pow) refers to daddsub_clz.o(x$fpl$drsb) for __aeabi_drsub
    pow.o(i.__hardfp_pow) refers to qnan.o(.constdata) for __mathlib_zero
    pow.o(i.__hardfp_pow) refers to daddsub_clz.o(x$fpl$dadd) for __aeabi_dadd
    pow.o(i.__hardfp_pow) refers to poly.o(i.__kernel_poly) for __kernel_poly
    pow.o(i.__hardfp_pow) refers to pow.o(.constdata) for .constdata
    pow.o(i.__hardfp_pow) refers to drleqf.o(x$fpl$drleqf) for __aeabi_cdrcmple
    pow.o(i.__hardfp_pow) refers to scalbn.o(x$fpl$scalbn) for __ARM_scalbn
    pow.o(i.__hardfp_pow) refers to fpclassify.o(i.__ARM_fpclassify) for __ARM_fpclassify
    pow.o(i.__softfp_pow) refers (Special) to usenofp.o(x$fpl$usenofp) for __I$use$fp
    pow.o(i.__softfp_pow) refers to pow.o(i.__hardfp_pow) for __hardfp_pow
    pow.o(i.pow) refers (Special) to usenofp.o(x$fpl$usenofp) for __I$use$fp
    pow.o(i.pow) refers to pow.o(i.__hardfp_pow) for __hardfp_pow
    pow.o(.constdata) refers (Special) to usenofp.o(x$fpl$usenofp) for __I$use$fp
    pow_x.o(i.____hardfp_pow$lsc) refers (Special) to usenofp.o(x$fpl$usenofp) for __I$use$fp
    pow_x.o(i.____hardfp_pow$lsc) refers to dunder.o(i.__mathlib_dbl_infnan2) for __mathlib_dbl_infnan2
    pow_x.o(i.____hardfp_pow$lsc) refers to _rserrno.o(.text) for __set_errno
    pow_x.o(i.____hardfp_pow$lsc) refers to basic.o(x$fpl$basic) for __aeabi_dneg
    pow_x.o(i.____hardfp_pow$lsc) refers to ddiv.o(x$fpl$ddiv) for __aeabi_ddiv
    pow_x.o(i.____hardfp_pow$lsc) refers to sqrt.o(i.sqrt) for sqrt
    pow_x.o(i.____hardfp_pow$lsc) refers to fabs.o(i.fabs) for fabs
    pow_x.o(i.____hardfp_pow$lsc) refers to dflt_clz.o(x$fpl$dflt) for __aeabi_i2d
    pow_x.o(i.____hardfp_pow$lsc) refers to dmul.o(x$fpl$dmul) for __aeabi_dmul
    pow_x.o(i.____hardfp_pow$lsc) refers to daddsub_clz.o(x$fpl$dsub) for __aeabi_dsub
    pow_x.o(i.____hardfp_pow$lsc) refers to daddsub_clz.o(x$fpl$drsb) for __aeabi_drsub
    pow_x.o(i.____hardfp_pow$lsc) refers to qnan.o(.constdata) for __mathlib_zero
    pow_x.o(i.____hardfp_pow$lsc) refers to daddsub_clz.o(x$fpl$dadd) for __aeabi_dadd
    pow_x.o(i.____hardfp_pow$lsc) refers to poly.o(i.__kernel_poly) for __kernel_poly
    pow_x.o(i.____hardfp_pow$lsc) refers to pow_x.o(.constdata) for .constdata
    pow_x.o(i.____hardfp_pow$lsc) refers to drleqf.o(x$fpl$drleqf) for __aeabi_cdrcmple
    pow_x.o(i.____hardfp_pow$lsc) refers to scalbn.o(x$fpl$scalbn) for __ARM_scalbn
    pow_x.o(i.____softfp_pow$lsc) refers (Special) to usenofp.o(x$fpl$usenofp) for __I$use$fp
    pow_x.o(i.____softfp_pow$lsc) refers to pow_x.o(i.____hardfp_pow$lsc) for ____hardfp_pow$lsc
    pow_x.o(i.__pow$lsc) refers (Special) to usenofp.o(x$fpl$usenofp) for __I$use$fp
    pow_x.o(i.__pow$lsc) refers to pow_x.o(i.____hardfp_pow$lsc) for ____hardfp_pow$lsc
    pow_x.o(.constdata) refers (Special) to usenofp.o(x$fpl$usenofp) for __I$use$fp
    sin.o(i.__hardfp_sin) refers (Special) to usenofp.o(x$fpl$usenofp) for __I$use$fp
    sin.o(i.__hardfp_sin) refers to _rserrno.o(.text) for __set_errno
    sin.o(i.__hardfp_sin) refers to dunder.o(i.__mathlib_dbl_invalid) for __mathlib_dbl_invalid
    sin.o(i.__hardfp_sin) refers to dunder.o(i.__mathlib_dbl_infnan) for __mathlib_dbl_infnan
    sin.o(i.__hardfp_sin) refers to rred.o(i.__ieee754_rem_pio2) for __ieee754_rem_pio2
    sin.o(i.__hardfp_sin) refers to cos_i.o(i.__kernel_cos) for __kernel_cos
    sin.o(i.__hardfp_sin) refers to basic.o(x$fpl$basic) for __aeabi_dneg
    sin.o(i.__hardfp_sin) refers to sin_i.o(i.__kernel_sin) for __kernel_sin
    sin.o(i.__softfp_sin) refers (Special) to usenofp.o(x$fpl$usenofp) for __I$use$fp
    sin.o(i.__softfp_sin) refers to sin.o(i.__hardfp_sin) for __hardfp_sin
    sin.o(i.sin) refers (Special) to usenofp.o(x$fpl$usenofp) for __I$use$fp
    sin.o(i.sin) refers to sin.o(i.__hardfp_sin) for __hardfp_sin
    sin_x.o(i.____hardfp_sin$lsc) refers (Special) to usenofp.o(x$fpl$usenofp) for __I$use$fp
    sin_x.o(i.____hardfp_sin$lsc) refers to _rserrno.o(.text) for __set_errno
    sin_x.o(i.____hardfp_sin$lsc) refers to dunder.o(i.__mathlib_dbl_infnan) for __mathlib_dbl_infnan
    sin_x.o(i.____hardfp_sin$lsc) refers to rred.o(i.__ieee754_rem_pio2) for __ieee754_rem_pio2
    sin_x.o(i.____hardfp_sin$lsc) refers to cos_i.o(i.__kernel_cos) for __kernel_cos
    sin_x.o(i.____hardfp_sin$lsc) refers to basic.o(x$fpl$basic) for __aeabi_dneg
    sin_x.o(i.____hardfp_sin$lsc) refers to sin_i.o(i.__kernel_sin) for __kernel_sin
    sin_x.o(i.____softfp_sin$lsc) refers (Special) to usenofp.o(x$fpl$usenofp) for __I$use$fp
    sin_x.o(i.____softfp_sin$lsc) refers to sin_x.o(i.____hardfp_sin$lsc) for ____hardfp_sin$lsc
    sin_x.o(i.__sin$lsc) refers (Special) to usenofp.o(x$fpl$usenofp) for __I$use$fp
    sin_x.o(i.__sin$lsc) refers to sin_x.o(i.____hardfp_sin$lsc) for ____hardfp_sin$lsc
    sqrt.o(i.__hardfp_sqrt) refers (Special) to usenofp.o(x$fpl$usenofp) for __I$use$fp
    sqrt.o(i.__hardfp_sqrt) refers to dsqrt_umaal.o(x$fpl$dsqrt) for _dsqrt
    sqrt.o(i.__hardfp_sqrt) refers to _rserrno.o(.text) for __set_errno
    sqrt.o(i.__softfp_sqrt) refers (Special) to usenofp.o(x$fpl$usenofp) for __I$use$fp
    sqrt.o(i.__softfp_sqrt) refers to dsqrt_umaal.o(x$fpl$dsqrt) for _dsqrt
    sqrt.o(i.__softfp_sqrt) refers to _rserrno.o(.text) for __set_errno
    sqrt.o(i.sqrt) refers (Special) to usenofp.o(x$fpl$usenofp) for __I$use$fp
    sqrt.o(i.sqrt) refers to dsqrt_umaal.o(x$fpl$dsqrt) for _dsqrt
    sqrt.o(i.sqrt) refers to _rserrno.o(.text) for __set_errno
    sqrt_x.o(i.____hardfp_sqrt$lsc) refers (Special) to usenofp.o(x$fpl$usenofp) for __I$use$fp
    sqrt_x.o(i.____hardfp_sqrt$lsc) refers to dleqf.o(x$fpl$dleqf) for __aeabi_cdcmple
    sqrt_x.o(i.____hardfp_sqrt$lsc) refers to _rserrno.o(.text) for __set_errno
    sqrt_x.o(i.____hardfp_sqrt$lsc) refers to dsqrt_umaal.o(x$fpl$dsqrt) for _dsqrt
    sqrt_x.o(i.____softfp_sqrt$lsc) refers (Special) to usenofp.o(x$fpl$usenofp) for __I$use$fp
    sqrt_x.o(i.____softfp_sqrt$lsc) refers to dleqf.o(x$fpl$dleqf) for __aeabi_cdcmple
    sqrt_x.o(i.____softfp_sqrt$lsc) refers to _rserrno.o(.text) for __set_errno
    sqrt_x.o(i.____softfp_sqrt$lsc) refers to dsqrt_umaal.o(x$fpl$dsqrt) for _dsqrt
    sqrt_x.o(i.__sqrt$lsc) refers (Special) to usenofp.o(x$fpl$usenofp) for __I$use$fp
    sqrt_x.o(i.__sqrt$lsc) refers to dleqf.o(x$fpl$dleqf) for __aeabi_cdcmple
    sqrt_x.o(i.__sqrt$lsc) refers to _rserrno.o(.text) for __set_errno
    sqrt_x.o(i.__sqrt$lsc) refers to dsqrt_umaal.o(x$fpl$dsqrt) for _dsqrt
    tan.o(i.__hardfp_tan) refers (Special) to usenofp.o(x$fpl$usenofp) for __I$use$fp
    tan.o(i.__hardfp_tan) refers to _rserrno.o(.text) for __set_errno
    tan.o(i.__hardfp_tan) refers to dunder.o(i.__mathlib_dbl_invalid) for __mathlib_dbl_invalid
    tan.o(i.__hardfp_tan) refers to dunder.o(i.__mathlib_dbl_infnan) for __mathlib_dbl_infnan
    tan.o(i.__hardfp_tan) refers to rred.o(i.__ieee754_rem_pio2) for __ieee754_rem_pio2
    tan.o(i.__hardfp_tan) refers to tan_i.o(i.__kernel_tan) for __kernel_tan
    tan.o(i.__softfp_tan) refers (Special) to usenofp.o(x$fpl$usenofp) for __I$use$fp
    tan.o(i.__softfp_tan) refers to _rserrno.o(.text) for __set_errno
    tan.o(i.__softfp_tan) refers to dunder.o(i.__mathlib_dbl_invalid) for __mathlib_dbl_invalid
    tan.o(i.__softfp_tan) refers to dunder.o(i.__mathlib_dbl_infnan) for __mathlib_dbl_infnan
    tan.o(i.__softfp_tan) refers to rred.o(i.__ieee754_rem_pio2) for __ieee754_rem_pio2
    tan.o(i.__softfp_tan) refers to tan_i.o(i.__kernel_tan) for __kernel_tan
    tan.o(i.tan) refers (Special) to usenofp.o(x$fpl$usenofp) for __I$use$fp
    tan.o(i.tan) refers to _rserrno.o(.text) for __set_errno
    tan.o(i.tan) refers to dunder.o(i.__mathlib_dbl_invalid) for __mathlib_dbl_invalid
    tan.o(i.tan) refers to dunder.o(i.__mathlib_dbl_infnan) for __mathlib_dbl_infnan
    tan.o(i.tan) refers to rred.o(i.__ieee754_rem_pio2) for __ieee754_rem_pio2
    tan.o(i.tan) refers to tan_i.o(i.__kernel_tan) for __kernel_tan
    tan_x.o(i.____hardfp_tan$lsc) refers (Special) to usenofp.o(x$fpl$usenofp) for __I$use$fp
    tan_x.o(i.____hardfp_tan$lsc) refers to _rserrno.o(.text) for __set_errno
    tan_x.o(i.____hardfp_tan$lsc) refers to dunder.o(i.__mathlib_dbl_infnan) for __mathlib_dbl_infnan
    tan_x.o(i.____hardfp_tan$lsc) refers to rred.o(i.__ieee754_rem_pio2) for __ieee754_rem_pio2
    tan_x.o(i.____hardfp_tan$lsc) refers to tan_i.o(i.__kernel_tan) for __kernel_tan
    tan_x.o(i.____softfp_tan$lsc) refers (Special) to usenofp.o(x$fpl$usenofp) for __I$use$fp
    tan_x.o(i.____softfp_tan$lsc) refers to _rserrno.o(.text) for __set_errno
    tan_x.o(i.____softfp_tan$lsc) refers to dunder.o(i.__mathlib_dbl_infnan) for __mathlib_dbl_infnan
    tan_x.o(i.____softfp_tan$lsc) refers to rred.o(i.__ieee754_rem_pio2) for __ieee754_rem_pio2
    tan_x.o(i.____softfp_tan$lsc) refers to tan_i.o(i.__kernel_tan) for __kernel_tan
    tan_x.o(i.__tan$lsc) refers (Special) to usenofp.o(x$fpl$usenofp) for __I$use$fp
    tan_x.o(i.__tan$lsc) refers to _rserrno.o(.text) for __set_errno
    tan_x.o(i.__tan$lsc) refers to dunder.o(i.__mathlib_dbl_infnan) for __mathlib_dbl_infnan
    tan_x.o(i.__tan$lsc) refers to rred.o(i.__ieee754_rem_pio2) for __ieee754_rem_pio2
    tan_x.o(i.__tan$lsc) refers to tan_i.o(i.__kernel_tan) for __kernel_tan
    __rtentry.o(.ARM.Collect$$rtentry$$00000000) refers (Special) to __rtentry2.o(.ARM.Collect$$rtentry$$0000000A) for __rt_entry_li
    __rtentry.o(.ARM.Collect$$rtentry$$00000000) refers (Special) to __rtentry2.o(.ARM.Collect$$rtentry$$0000000D) for __rt_entry_main
    __rtentry.o(.ARM.Collect$$rtentry$$00000000) refers (Special) to __rtentry2.o(.ARM.Collect$$rtentry$$0000000C) for __rt_entry_postli_1
    __rtentry.o(.ARM.Collect$$rtentry$$00000000) refers (Special) to __rtentry2.o(.ARM.Collect$$rtentry$$00000009) for __rt_entry_postsh_1
    __rtentry.o(.ARM.Collect$$rtentry$$00000000) refers (Special) to __rtentry2.o(.ARM.Collect$$rtentry$$00000002) for __rt_entry_presh_1
    __rtentry.o(.ARM.Collect$$rtentry$$00000000) refers (Special) to __rtentry4.o(.ARM.Collect$$rtentry$$00000004) for __rt_entry_sh
    aeabi_ldiv0_sigfpe.o(.text) refers to rt_div0.o(.text) for __rt_div0
    _rserrno.o(.text) refers to rt_errno_addr_intlibspace.o(.text) for __aeabi_errno_addr
    _printf_intcommon.o(.text) refers (Weak) to _printf_pad.o(.text) for _printf_pre_padding
    _printf_intcommon.o(.text) refers (Weak) to _printf_pad.o(.text) for _printf_pre_padding
    _printf_intcommon.o(.text) refers (Weak) to _printf_pad.o(.text) for _printf_post_padding
    _printf_char_common.o(.text) refers to __printf_flags_ss_wp.o(.text) for __printf
    _printf_char.o(.text) refers (Weak) to _printf_str.o(.text) for _printf_str
    _printf_char_file.o(.text) refers to _printf_char_common.o(.text) for _printf_char_common
    _printf_char_file.o(.text) refers to ferror.o(.text) for ferror
    _printf_char_file.o(.text) refers to usart.o(i.fputc) for fputc
    basic.o(x$fpl$basic) refers (Special) to usenofp.o(x$fpl$usenofp) for __I$use$fp
    deqf.o(x$fpl$deqf) refers (Special) to usenofp.o(x$fpl$usenofp) for __I$use$fp
    deqf.o(x$fpl$deqf) refers to dnaninf.o(x$fpl$dnaninf) for __fpl_dnaninf
    deqf.o(x$fpl$deqf) refers to dcmpi.o(x$fpl$dcmpinf) for __fpl_dcmp_Inf
    dleqf.o(x$fpl$dleqf) refers (Special) to usenofp.o(x$fpl$usenofp) for __I$use$fp
    dleqf.o(x$fpl$dleqf) refers to dnaninf.o(x$fpl$dnaninf) for __fpl_dnaninf
    dleqf.o(x$fpl$dleqf) refers to dcmpi.o(x$fpl$dcmpinf) for __fpl_dcmp_Inf
    dnaninf.o(x$fpl$dnaninf) refers (Special) to usenofp.o(x$fpl$usenofp) for __I$use$fp
    dretinf.o(x$fpl$dretinf) refers (Special) to usenofp.o(x$fpl$usenofp) for __I$use$fp
    dsqrt_umaal.o(x$fpl$dsqrt) refers (Special) to usenofp.o(x$fpl$usenofp) for __I$use$fp
    dsqrt_umaal.o(x$fpl$dsqrt) refers to dnaninf.o(x$fpl$dnaninf) for __fpl_dnaninf
    fnaninf.o(x$fpl$fnaninf) refers (Special) to usenofp.o(x$fpl$usenofp) for __I$use$fp
    fretinf.o(x$fpl$fretinf) refers (Special) to usenofp.o(x$fpl$usenofp) for __I$use$fp
    scalbn.o(x$fpl$scalbn) refers (Special) to usenofp.o(x$fpl$usenofp) for __I$use$fp
    scalbn.o(x$fpl$scalbn) refers to dcheck1.o(x$fpl$dcheck1) for __fpl_dcheck_NaN1
    cos_i.o(i.__kernel_cos) refers (Special) to usenofp.o(x$fpl$usenofp) for __I$use$fp
    cos_i.o(i.__kernel_cos) refers to dfix.o(x$fpl$dfix) for __aeabi_d2iz
    cos_i.o(i.__kernel_cos) refers to dmul.o(x$fpl$dmul) for __aeabi_dmul
    cos_i.o(i.__kernel_cos) refers to poly.o(i.__kernel_poly) for __kernel_poly
    cos_i.o(i.__kernel_cos) refers to daddsub_clz.o(x$fpl$dsub) for __aeabi_dsub
    cos_i.o(i.__kernel_cos) refers to daddsub_clz.o(x$fpl$drsb) for __aeabi_drsub
    cos_i.o(i.__kernel_cos) refers to cos_i.o(.constdata) for .constdata
    cos_i.o(.constdata) refers (Special) to usenofp.o(x$fpl$usenofp) for __I$use$fp
    dunder.o(i.__mathlib_dbl_divzero) refers to ddiv.o(x$fpl$ddiv) for __aeabi_ddiv
    dunder.o(i.__mathlib_dbl_infnan) refers to daddsub_clz.o(x$fpl$dadd) for __aeabi_dadd
    dunder.o(i.__mathlib_dbl_infnan2) refers to daddsub_clz.o(x$fpl$dadd) for __aeabi_dadd
    dunder.o(i.__mathlib_dbl_invalid) refers to ddiv.o(x$fpl$ddiv) for __aeabi_ddiv
    dunder.o(i.__mathlib_dbl_overflow) refers to dmul.o(x$fpl$dmul) for __aeabi_dmul
    dunder.o(i.__mathlib_dbl_posinfnan) refers to dmul.o(x$fpl$dmul) for __aeabi_dmul
    dunder.o(i.__mathlib_dbl_underflow) refers to dmul.o(x$fpl$dmul) for __aeabi_dmul
    fabs.o(i.__hardfp_fabs) refers (Special) to usenofp.o(x$fpl$usenofp) for __I$use$fp
    fabs.o(i.__softfp_fabs) refers (Special) to usenofp.o(x$fpl$usenofp) for __I$use$fp
    fabs.o(i.fabs) refers (Special) to usenofp.o(x$fpl$usenofp) for __I$use$fp
    fpclassify.o(i.__ARM_fpclassify) refers (Special) to usenofp.o(x$fpl$usenofp) for __I$use$fp
    poly.o(i.__kernel_poly) refers (Special) to usenofp.o(x$fpl$usenofp) for __I$use$fp
    poly.o(i.__kernel_poly) refers to dmul.o(x$fpl$dmul) for __aeabi_dmul
    poly.o(i.__kernel_poly) refers to daddsub_clz.o(x$fpl$dadd) for __aeabi_dadd
    qnan.o(.constdata) refers (Special) to usenofp.o(x$fpl$usenofp) for __I$use$fp
    rred.o(i.__ieee754_rem_pio2) refers (Special) to usenofp.o(x$fpl$usenofp) for __I$use$fp
    rred.o(i.__ieee754_rem_pio2) refers to daddsub_clz.o(x$fpl$dsub) for __aeabi_dsub
    rred.o(i.__ieee754_rem_pio2) refers to daddsub_clz.o(x$fpl$dadd) for __aeabi_dadd
    rred.o(i.__ieee754_rem_pio2) refers to fabs.o(i.fabs) for fabs
    rred.o(i.__ieee754_rem_pio2) refers to dmul.o(x$fpl$dmul) for __aeabi_dmul
    rred.o(i.__ieee754_rem_pio2) refers to dfix.o(x$fpl$dfix) for __aeabi_d2iz
    rred.o(i.__ieee754_rem_pio2) refers to dflt_clz.o(x$fpl$dflt) for __aeabi_i2d
    rred.o(i.__ieee754_rem_pio2) refers to daddsub_clz.o(x$fpl$drsb) for __aeabi_drsub
    rred.o(i.__ieee754_rem_pio2) refers to basic.o(x$fpl$basic) for __aeabi_dneg
    rred.o(i.__ieee754_rem_pio2) refers to dflt_clz.o(x$fpl$dfltu) for __aeabi_ui2d
    rred.o(i.__ieee754_rem_pio2) refers to rred.o(.constdata) for .constdata
    rred.o(i.__use_accurate_range_reduction) refers (Special) to usenofp.o(x$fpl$usenofp) for __I$use$fp
    rred.o(.constdata) refers (Special) to usenofp.o(x$fpl$usenofp) for __I$use$fp
    sin_i.o(i.__kernel_sin) refers (Special) to usenofp.o(x$fpl$usenofp) for __I$use$fp
    sin_i.o(i.__kernel_sin) refers to fpclassify.o(i.__ARM_fpclassify) for __ARM_fpclassify
    sin_i.o(i.__kernel_sin) refers to dunder.o(i.__mathlib_dbl_underflow) for __mathlib_dbl_underflow
    sin_i.o(i.__kernel_sin) refers to dmul.o(x$fpl$dmul) for __aeabi_dmul
    sin_i.o(i.__kernel_sin) refers to poly.o(i.__kernel_poly) for __kernel_poly
    sin_i.o(i.__kernel_sin) refers to daddsub_clz.o(x$fpl$dsub) for __aeabi_dsub
    sin_i.o(i.__kernel_sin) refers to daddsub_clz.o(x$fpl$drsb) for __aeabi_drsub
    sin_i.o(i.__kernel_sin) refers to daddsub_clz.o(x$fpl$dadd) for __aeabi_dadd
    sin_i.o(i.__kernel_sin) refers to sin_i.o(.constdata) for .constdata
    sin_i.o(.constdata) refers (Special) to usenofp.o(x$fpl$usenofp) for __I$use$fp
    sin_i_x.o(i.____kernel_sin$lsc) refers (Special) to usenofp.o(x$fpl$usenofp) for __I$use$fp
    sin_i_x.o(i.____kernel_sin$lsc) refers to dmul.o(x$fpl$dmul) for __aeabi_dmul
    sin_i_x.o(i.____kernel_sin$lsc) refers to poly.o(i.__kernel_poly) for __kernel_poly
    sin_i_x.o(i.____kernel_sin$lsc) refers to daddsub_clz.o(x$fpl$dsub) for __aeabi_dsub
    sin_i_x.o(i.____kernel_sin$lsc) refers to daddsub_clz.o(x$fpl$drsb) for __aeabi_drsub
    sin_i_x.o(i.____kernel_sin$lsc) refers to daddsub_clz.o(x$fpl$dadd) for __aeabi_dadd
    sin_i_x.o(i.____kernel_sin$lsc) refers to sin_i_x.o(.constdata) for .constdata
    sin_i_x.o(.constdata) refers (Special) to usenofp.o(x$fpl$usenofp) for __I$use$fp
    tan_i.o(i.__kernel_tan) refers (Special) to usenofp.o(x$fpl$usenofp) for __I$use$fp
    tan_i.o(i.__kernel_tan) refers to dfix.o(x$fpl$dfix) for __aeabi_d2iz
    tan_i.o(i.__kernel_tan) refers to basic.o(x$fpl$basic) for __aeabi_dneg
    tan_i.o(i.__kernel_tan) refers to daddsub_clz.o(x$fpl$drsb) for __aeabi_drsub
    tan_i.o(i.__kernel_tan) refers to daddsub_clz.o(x$fpl$dsub) for __aeabi_dsub
    tan_i.o(i.__kernel_tan) refers to daddsub_clz.o(x$fpl$dadd) for __aeabi_dadd
    tan_i.o(i.__kernel_tan) refers to dmul.o(x$fpl$dmul) for __aeabi_dmul
    tan_i.o(i.__kernel_tan) refers to poly.o(i.__kernel_poly) for __kernel_poly
    tan_i.o(i.__kernel_tan) refers to dflt_clz.o(x$fpl$dflt) for __aeabi_i2d
    tan_i.o(i.__kernel_tan) refers to ddiv.o(x$fpl$ddiv) for __aeabi_ddiv
    tan_i.o(i.__kernel_tan) refers to fabs.o(i.fabs) for fabs
    tan_i.o(i.__kernel_tan) refers to fpclassify.o(i.__ARM_fpclassify) for __ARM_fpclassify
    tan_i.o(i.__kernel_tan) refers to dunder.o(i.__mathlib_dbl_underflow) for __mathlib_dbl_underflow
    tan_i.o(i.__kernel_tan) refers to tan_i.o(.constdata) for .constdata
    tan_i.o(.constdata) refers (Special) to usenofp.o(x$fpl$usenofp) for __I$use$fp
    tan_i_x.o(i.____kernel_tan$lsc) refers (Special) to usenofp.o(x$fpl$usenofp) for __I$use$fp
    tan_i_x.o(i.____kernel_tan$lsc) refers to dfix.o(x$fpl$dfix) for __aeabi_d2iz
    tan_i_x.o(i.____kernel_tan$lsc) refers to basic.o(x$fpl$basic) for __aeabi_dneg
    tan_i_x.o(i.____kernel_tan$lsc) refers to daddsub_clz.o(x$fpl$drsb) for __aeabi_drsub
    tan_i_x.o(i.____kernel_tan$lsc) refers to daddsub_clz.o(x$fpl$dsub) for __aeabi_dsub
    tan_i_x.o(i.____kernel_tan$lsc) refers to daddsub_clz.o(x$fpl$dadd) for __aeabi_dadd
    tan_i_x.o(i.____kernel_tan$lsc) refers to dmul.o(x$fpl$dmul) for __aeabi_dmul
    tan_i_x.o(i.____kernel_tan$lsc) refers to poly.o(i.__kernel_poly) for __kernel_poly
    tan_i_x.o(i.____kernel_tan$lsc) refers to dflt_clz.o(x$fpl$dflt) for __aeabi_i2d
    tan_i_x.o(i.____kernel_tan$lsc) refers to ddiv.o(x$fpl$ddiv) for __aeabi_ddiv
    tan_i_x.o(i.____kernel_tan$lsc) refers to fabs.o(i.fabs) for fabs
    tan_i_x.o(i.____kernel_tan$lsc) refers to tan_i_x.o(.constdata) for .constdata
    tan_i_x.o(.constdata) refers (Special) to usenofp.o(x$fpl$usenofp) for __I$use$fp
    __rtentry2.o(.ARM.Collect$$rtentry$$00000008) refers to boardinit2.o(.text) for _platform_post_stackheap_init
    __rtentry2.o(.ARM.Collect$$rtentry$$0000000A) refers to libinit.o(.ARM.Collect$$libinit$$00000000) for __rt_lib_init
    __rtentry2.o(.ARM.Collect$$rtentry$$0000000B) refers to boardinit3.o(.text) for _platform_post_lib_init
    __rtentry2.o(.ARM.Collect$$rtentry$$0000000D) refers to main.o(i.main) for main
    __rtentry2.o(.ARM.Collect$$rtentry$$0000000D) refers to exit.o(.text) for exit
    __rtentry2.o(.ARM.exidx) refers to __rtentry2.o(.ARM.Collect$$rtentry$$00000001) for .ARM.Collect$$rtentry$$00000001
    __rtentry2.o(.ARM.exidx) refers to __rtentry2.o(.ARM.Collect$$rtentry$$00000008) for .ARM.Collect$$rtentry$$00000008
    __rtentry2.o(.ARM.exidx) refers to __rtentry2.o(.ARM.Collect$$rtentry$$0000000A) for .ARM.Collect$$rtentry$$0000000A
    __rtentry2.o(.ARM.exidx) refers to __rtentry2.o(.ARM.Collect$$rtentry$$0000000B) for .ARM.Collect$$rtentry$$0000000B
    __rtentry2.o(.ARM.exidx) refers to __rtentry2.o(.ARM.Collect$$rtentry$$0000000D) for .ARM.Collect$$rtentry$$0000000D
    __rtentry4.o(.ARM.Collect$$rtentry$$00000004) refers to sys_stackheap_outer.o(.text) for __user_setup_stackheap
    __rtentry4.o(.ARM.exidx) refers to __rtentry4.o(.ARM.Collect$$rtentry$$00000004) for .ARM.Collect$$rtentry$$00000004
    rt_div0.o(.text) refers to defsig_fpe_outer.o(.text) for __rt_SIGFPE
    rt_errno_addr.o(.text) refers to rt_errno_addr.o(.bss) for __aeabi_errno_addr_data
    rt_errno_addr_intlibspace.o(.text) refers to libspace.o(.bss) for __libspace_start
    dcheck1.o(x$fpl$dcheck1) refers (Special) to usenofp.o(x$fpl$usenofp) for __I$use$fp
    dcheck1.o(x$fpl$dcheck1) refers to retnan.o(x$fpl$retnan) for __fpl_return_NaN
    dcmpi.o(x$fpl$dcmpinf) refers (Special) to usenofp.o(x$fpl$usenofp) for __I$use$fp
    libspace.o(.text) refers to libspace.o(.bss) for __libspace_start
    sys_stackheap_outer.o(.text) refers to libspace.o(.text) for __user_perproc_libspace
    sys_stackheap_outer.o(.text) refers to startup_stm32f407xx.o(.text) for __user_initial_stackheap
    exit.o(.text) refers to rtexit.o(.ARM.Collect$$rtexit$$00000000) for __rt_exit
    defsig_fpe_outer.o(.text) refers to defsig_fpe_inner.o(.text) for __rt_SIGFPE_inner
    defsig_fpe_outer.o(.text) refers to defsig_exit.o(.text) for __sig_exit
    defsig_fpe_formal.o(.text) refers to rt_raise.o(.text) for __rt_raise
    libinit.o(.ARM.Collect$$libinit$$00000000) refers (Special) to libinit2.o(.ARM.Collect$$libinit$$0000002E) for __rt_lib_init_alloca_1
    libinit.o(.ARM.Collect$$libinit$$00000000) refers (Special) to libinit2.o(.ARM.Collect$$libinit$$0000002C) for __rt_lib_init_argv_1
    libinit.o(.ARM.Collect$$libinit$$00000000) refers (Special) to libinit2.o(.ARM.Collect$$libinit$$0000001B) for __rt_lib_init_atexit_1
    libinit.o(.ARM.Collect$$libinit$$00000000) refers (Special) to libinit2.o(.ARM.Collect$$libinit$$00000021) for __rt_lib_init_clock_1
    libinit.o(.ARM.Collect$$libinit$$00000000) refers (Special) to libinit2.o(.ARM.Collect$$libinit$$00000032) for __rt_lib_init_cpp_1
    libinit.o(.ARM.Collect$$libinit$$00000000) refers (Special) to libinit2.o(.ARM.Collect$$libinit$$00000030) for __rt_lib_init_exceptions_1
    libinit.o(.ARM.Collect$$libinit$$00000000) refers (Special) to libinit2.o(.ARM.Collect$$libinit$$00000001) for __rt_lib_init_fp_1
    libinit.o(.ARM.Collect$$libinit$$00000000) refers (Special) to libinit2.o(.ARM.Collect$$libinit$$0000001F) for __rt_lib_init_fp_trap_1
    libinit.o(.ARM.Collect$$libinit$$00000000) refers (Special) to libinit2.o(.ARM.Collect$$libinit$$00000023) for __rt_lib_init_getenv_1
    libinit.o(.ARM.Collect$$libinit$$00000000) refers (Special) to libinit2.o(.ARM.Collect$$libinit$$0000000A) for __rt_lib_init_heap_1
    libinit.o(.ARM.Collect$$libinit$$00000000) refers (Special) to libinit2.o(.ARM.Collect$$libinit$$00000011) for __rt_lib_init_lc_collate_1
    libinit.o(.ARM.Collect$$libinit$$00000000) refers (Special) to libinit2.o(.ARM.Collect$$libinit$$00000013) for __rt_lib_init_lc_ctype_1
    libinit.o(.ARM.Collect$$libinit$$00000000) refers (Special) to libinit2.o(.ARM.Collect$$libinit$$00000015) for __rt_lib_init_lc_monetary_1
    libinit.o(.ARM.Collect$$libinit$$00000000) refers (Special) to libinit2.o(.ARM.Collect$$libinit$$00000017) for __rt_lib_init_lc_numeric_1
    libinit.o(.ARM.Collect$$libinit$$00000000) refers (Special) to libinit2.o(.ARM.Collect$$libinit$$00000019) for __rt_lib_init_lc_time_1
    libinit.o(.ARM.Collect$$libinit$$00000000) refers (Special) to libinit2.o(.ARM.Collect$$libinit$$00000004) for __rt_lib_init_preinit_1
    libinit.o(.ARM.Collect$$libinit$$00000000) refers (Special) to libinit2.o(.ARM.Collect$$libinit$$0000000E) for __rt_lib_init_rand_1
    libinit.o(.ARM.Collect$$libinit$$00000000) refers (Special) to libinit2.o(.ARM.Collect$$libinit$$00000033) for __rt_lib_init_return
    libinit.o(.ARM.Collect$$libinit$$00000000) refers (Special) to libinit2.o(.ARM.Collect$$libinit$$0000001D) for __rt_lib_init_signal_1
    libinit.o(.ARM.Collect$$libinit$$00000000) refers (Special) to libinit2.o(.ARM.Collect$$libinit$$00000025) for __rt_lib_init_stdio_1
    libinit.o(.ARM.Collect$$libinit$$00000000) refers (Special) to libinit2.o(.ARM.Collect$$libinit$$0000000C) for __rt_lib_init_user_alloc_1
    retnan.o(x$fpl$retnan) refers (Special) to usenofp.o(x$fpl$usenofp) for __I$use$fp
    retnan.o(x$fpl$retnan) refers to trapv.o(x$fpl$trapveneer) for __fpl_cmpreturn
    rtexit.o(.ARM.Collect$$rtexit$$00000000) refers (Special) to rtexit2.o(.ARM.Collect$$rtexit$$00000004) for __rt_exit_exit
    rtexit.o(.ARM.Collect$$rtexit$$00000000) refers (Special) to rtexit2.o(.ARM.Collect$$rtexit$$00000003) for __rt_exit_ls
    rtexit.o(.ARM.Collect$$rtexit$$00000000) refers (Special) to rtexit2.o(.ARM.Collect$$rtexit$$00000002) for __rt_exit_prels_1
    rtexit.o(.ARM.exidx) refers (Special) to rtexit2.o(.ARM.Collect$$rtexit$$00000004) for __rt_exit_exit
    rtexit.o(.ARM.exidx) refers (Special) to rtexit2.o(.ARM.Collect$$rtexit$$00000003) for __rt_exit_ls
    rtexit.o(.ARM.exidx) refers (Special) to rtexit2.o(.ARM.Collect$$rtexit$$00000002) for __rt_exit_prels_1
    rtexit.o(.ARM.exidx) refers to rtexit.o(.ARM.Collect$$rtexit$$00000000) for .ARM.Collect$$rtexit$$00000000
    rt_raise.o(.text) refers to __raise.o(.text) for __raise
    rt_raise.o(.text) refers to usart.o(i._sys_exit) for _sys_exit
    defsig_exit.o(.text) refers to usart.o(i._sys_exit) for _sys_exit
    defsig_fpe_inner.o(.text) refers to defsig_general.o(.text) for __default_signal_display
    libinit2.o(.ARM.Collect$$libinit$$00000001) refers to fpinit.o(x$fpl$fpinit) for _fp_init
    libinit2.o(.ARM.Collect$$libinit$$00000010) refers to libinit2.o(.ARM.Collect$$libinit$$0000000F) for .ARM.Collect$$libinit$$0000000F
    libinit2.o(.ARM.Collect$$libinit$$00000012) refers to libinit2.o(.ARM.Collect$$libinit$$0000000F) for .ARM.Collect$$libinit$$0000000F
    libinit2.o(.ARM.Collect$$libinit$$00000014) refers to libinit2.o(.ARM.Collect$$libinit$$0000000F) for .ARM.Collect$$libinit$$0000000F
    libinit2.o(.ARM.Collect$$libinit$$00000016) refers to libinit2.o(.ARM.Collect$$libinit$$0000000F) for .ARM.Collect$$libinit$$0000000F
    libinit2.o(.ARM.Collect$$libinit$$00000018) refers to libinit2.o(.ARM.Collect$$libinit$$0000000F) for .ARM.Collect$$libinit$$0000000F
    libinit2.o(.ARM.Collect$$libinit$$00000026) refers to argv_veneer.o(.emb_text) for __ARM_argv_veneer
    libinit2.o(.ARM.Collect$$libinit$$00000027) refers to argv_veneer.o(.emb_text) for __ARM_argv_veneer
    trapv.o(x$fpl$trapveneer) refers (Special) to usenofp.o(x$fpl$usenofp) for __I$use$fp
    rtexit2.o(.ARM.Collect$$rtexit$$00000003) refers to libshutdown.o(.ARM.Collect$$libshutdown$$00000000) for __rt_lib_shutdown
    rtexit2.o(.ARM.Collect$$rtexit$$00000004) refers to usart.o(i._sys_exit) for _sys_exit
    rtexit2.o(.ARM.exidx) refers to rtexit2.o(.ARM.Collect$$rtexit$$00000001) for .ARM.Collect$$rtexit$$00000001
    rtexit2.o(.ARM.exidx) refers to rtexit2.o(.ARM.Collect$$rtexit$$00000003) for .ARM.Collect$$rtexit$$00000003
    rtexit2.o(.ARM.exidx) refers to rtexit2.o(.ARM.Collect$$rtexit$$00000004) for .ARM.Collect$$rtexit$$00000004
    __raise.o(.text) refers to defsig.o(CL$$defsig) for __default_signal_handler
    defsig_general.o(.text) refers to usart.o(i._ttywrch) for _ttywrch
    argv_veneer.o(.emb_text) refers to no_argv.o(.text) for __ARM_get_argv
    defsig.o(CL$$defsig) refers to defsig_fpe_inner.o(.text) for __rt_SIGFPE_inner
    defsig.o(CL$$defsig) refers to defsig_rtmem_inner.o(.text) for __rt_SIGRTMEM_inner
    _get_argv_nomalloc.o(.text) refers (Special) to hrguard.o(.text) for __heap_region$guard
    _get_argv_nomalloc.o(.text) refers to defsig_rtmem_outer.o(.text) for __rt_SIGRTMEM
    _get_argv_nomalloc.o(.text) refers to usart.o(i._sys_command_string) for _sys_command_string
    libshutdown.o(.ARM.Collect$$libshutdown$$00000000) refers (Special) to libshutdown2.o(.ARM.Collect$$libshutdown$$00000004) for __rt_lib_shutdown_cpp_1
    libshutdown.o(.ARM.Collect$$libshutdown$$00000000) refers (Special) to libshutdown2.o(.ARM.Collect$$libshutdown$$00000002) for __rt_lib_shutdown_fini_1
    libshutdown.o(.ARM.Collect$$libshutdown$$00000000) refers (Special) to libshutdown2.o(.ARM.Collect$$libshutdown$$00000009) for __rt_lib_shutdown_fp_trap_1
    libshutdown.o(.ARM.Collect$$libshutdown$$00000000) refers (Special) to libshutdown2.o(.ARM.Collect$$libshutdown$$00000011) for __rt_lib_shutdown_heap_1
    libshutdown.o(.ARM.Collect$$libshutdown$$00000000) refers (Special) to libshutdown2.o(.ARM.Collect$$libshutdown$$00000012) for __rt_lib_shutdown_return
    libshutdown.o(.ARM.Collect$$libshutdown$$00000000) refers (Special) to libshutdown2.o(.ARM.Collect$$libshutdown$$0000000C) for __rt_lib_shutdown_signal_1
    libshutdown.o(.ARM.Collect$$libshutdown$$00000000) refers (Special) to libshutdown2.o(.ARM.Collect$$libshutdown$$00000006) for __rt_lib_shutdown_stdio_1
    libshutdown.o(.ARM.Collect$$libshutdown$$00000000) refers (Special) to libshutdown2.o(.ARM.Collect$$libshutdown$$0000000E) for __rt_lib_shutdown_user_alloc_1
    defsig_abrt_inner.o(.text) refers to defsig_general.o(.text) for __default_signal_display
    defsig_rtred_inner.o(.text) refers to defsig_general.o(.text) for __default_signal_display
    defsig_rtmem_inner.o(.text) refers to defsig_general.o(.text) for __default_signal_display
    defsig_rtmem_outer.o(.text) refers to defsig_rtmem_inner.o(.text) for __rt_SIGRTMEM_inner
    defsig_rtmem_outer.o(.text) refers to defsig_exit.o(.text) for __sig_exit
    defsig_rtmem_formal.o(.text) refers to rt_raise.o(.text) for __rt_raise
    defsig_stak_inner.o(.text) refers to defsig_general.o(.text) for __default_signal_display
    defsig_pvfn_inner.o(.text) refers to defsig_general.o(.text) for __default_signal_display
    defsig_cppl_inner.o(.text) refers to defsig_general.o(.text) for __default_signal_display
    defsig_segv_inner.o(.text) refers to defsig_general.o(.text) for __default_signal_display
    defsig_other.o(.text) refers to defsig_general.o(.text) for __default_signal_display
    piclib.o(i.piclib_is_element_ok) refers to piclib.o(.bss) for picinfo


==============================================================================

Removing Unused input sections from the image.

    Removing main.o(.rev16_text), (4 bytes).
    Removing main.o(.revsh_text), (4 bytes).
    Removing main.o(.rrx_text), (6 bytes).
    Removing main.o(i.camera_new_pathname), (144 bytes).
    Removing main.o(i.jpeg_dcmi_rx_callback), (120 bytes).
    Removing main.o(i.ov2640_jpg_photo), (468 bytes).
    Removing face_recognition.o(.rev16_text), (4 bytes).
    Removing face_recognition.o(.revsh_text), (4 bytes).
    Removing face_recognition.o(.rrx_text), (6 bytes).
    Removing syn6288.o(.rev16_text), (4 bytes).
    Removing syn6288.o(.revsh_text), (4 bytes).
    Removing syn6288.o(.rrx_text), (6 bytes).
    Removing syn6288.o(i.YS_SYN_Set), (22 bytes).
    Removing delay.o(.rev16_text), (4 bytes).
    Removing delay.o(.revsh_text), (4 bytes).
    Removing delay.o(.rrx_text), (6 bytes).
    Removing sys.o(.rev16_text), (4 bytes).
    Removing sys.o(.revsh_text), (4 bytes).
    Removing sys.o(.rrx_text), (6 bytes).
    Removing sys.o(i.sys_msr_msp), (10 bytes).
    Removing sys.o(i.sys_nvic_ex_config), (288 bytes).
    Removing sys.o(i.sys_soft_reset), (16 bytes).
    Removing sys.o(i.sys_standby), (76 bytes).
    Removing sys.o(i.sys_wfi_set), (4 bytes).
    Removing usart.o(.rev16_text), (4 bytes).
    Removing usart.o(.revsh_text), (4 bytes).
    Removing usart.o(.rrx_text), (6 bytes).
    Removing usart.o(i._sys_command_string), (6 bytes).
    Removing usart.o(i._ttywrch), (4 bytes).
    Removing led.o(.rev16_text), (4 bytes).
    Removing led.o(.revsh_text), (4 bytes).
    Removing led.o(.rrx_text), (6 bytes).
    Removing lcd.o(.rev16_text), (4 bytes).
    Removing lcd.o(.revsh_text), (4 bytes).
    Removing lcd.o(.rrx_text), (6 bytes).
    Removing lcd.o(i.lcd_display_off), (36 bytes).
    Removing lcd.o(i.lcd_display_on), (36 bytes).
    Removing lcd.o(i.lcd_draw_circle), (170 bytes).
    Removing lcd.o(i.lcd_draw_line), (172 bytes).
    Removing lcd.o(i.lcd_draw_rectangle), (74 bytes).
    Removing lcd.o(i.lcd_fill_circle), (176 bytes).
    Removing lcd.o(i.lcd_pow), (22 bytes).
    Removing lcd.o(i.lcd_set_window), (368 bytes).
    Removing lcd.o(i.lcd_show_num), (152 bytes).
    Removing lcd.o(i.lcd_show_xnum), (198 bytes).
    Removing key.o(.rev16_text), (4 bytes).
    Removing key.o(.revsh_text), (4 bytes).
    Removing key.o(.rrx_text), (6 bytes).
    Removing sram.o(.rev16_text), (4 bytes).
    Removing sram.o(.revsh_text), (4 bytes).
    Removing sram.o(.rrx_text), (6 bytes).
    Removing sram.o(i.sram_read), (22 bytes).
    Removing sram.o(i.sram_test_read), (20 bytes).
    Removing sram.o(i.sram_test_write), (16 bytes).
    Removing sram.o(i.sram_write), (24 bytes).
    Removing sdio_sdcard.o(.rev16_text), (4 bytes).
    Removing sdio_sdcard.o(.revsh_text), (4 bytes).
    Removing sdio_sdcard.o(.rrx_text), (6 bytes).
    Removing sdio_sdcard.o(i.sdmmc_get_status), (26 bytes).
    Removing sdio_sdcard.o(i.sdmmc_send_status), (60 bytes).
    Removing spi.o(.rev16_text), (4 bytes).
    Removing spi.o(.revsh_text), (4 bytes).
    Removing spi.o(.rrx_text), (6 bytes).
    Removing norflash.o(.rev16_text), (4 bytes).
    Removing norflash.o(.revsh_text), (4 bytes).
    Removing norflash.o(.rrx_text), (6 bytes).
    Removing norflash.o(i.norflash_erase_chip), (48 bytes).
    Removing beep.o(.rev16_text), (4 bytes).
    Removing beep.o(.revsh_text), (4 bytes).
    Removing beep.o(.rrx_text), (6 bytes).
    Removing btim.o(.rev16_text), (4 bytes).
    Removing btim.o(.revsh_text), (4 bytes).
    Removing btim.o(.rrx_text), (6 bytes).
    Removing usart2.o(.rev16_text), (4 bytes).
    Removing usart2.o(.revsh_text), (4 bytes).
    Removing usart2.o(.rrx_text), (6 bytes).
    Removing usart2.o(i.USART2_UX_IRQHandler), (132 bytes).
    Removing usart2.o(.bss), (200 bytes).
    Removing usart2.o(.data), (2 bytes).
    Removing ov2640.o(.rev16_text), (4 bytes).
    Removing ov2640.o(.revsh_text), (4 bytes).
    Removing ov2640.o(.rrx_text), (6 bytes).
    Removing ov2640.o(i.ov2640_auto_exposure), (44 bytes).
    Removing ov2640.o(i.ov2640_brightness), (56 bytes).
    Removing ov2640.o(i.ov2640_color_bar), (40 bytes).
    Removing ov2640.o(i.ov2640_color_saturation), (64 bytes).
    Removing ov2640.o(i.ov2640_contrast), (118 bytes).
    Removing ov2640.o(i.ov2640_image_win_set), (188 bytes).
    Removing ov2640.o(i.ov2640_imagesize_set), (80 bytes).
    Removing ov2640.o(i.ov2640_jpeg_mode), (76 bytes).
    Removing ov2640.o(i.ov2640_light_mode), (120 bytes).
    Removing ov2640.o(i.ov2640_special_effects), (122 bytes).
    Removing ov2640.o(i.ov2640_window_set), (156 bytes).
    Removing sccb.o(.rev16_text), (4 bytes).
    Removing sccb.o(.revsh_text), (4 bytes).
    Removing sccb.o(.rrx_text), (6 bytes).
    Removing dcmi.o(.rev16_text), (4 bytes).
    Removing dcmi.o(.revsh_text), (4 bytes).
    Removing dcmi.o(.rrx_text), (6 bytes).
    Removing dcmi.o(i.dcmi_cr_set), (64 bytes).
    Removing dcmi.o(i.dcmi_set_window), (92 bytes).
    Removing pwmdac.o(.rev16_text), (4 bytes).
    Removing pwmdac.o(.revsh_text), (4 bytes).
    Removing pwmdac.o(.rrx_text), (6 bytes).
    Removing pwmdac.o(i.pwmdac_set_voltage), (120 bytes).
    Removing usmart.o(.rev16_text), (4 bytes).
    Removing usmart.o(.revsh_text), (4 bytes).
    Removing usmart.o(.rrx_text), (6 bytes).
    Removing usmart_config.o(.rev16_text), (4 bytes).
    Removing usmart_config.o(.revsh_text), (4 bytes).
    Removing usmart_config.o(.rrx_text), (6 bytes).
    Removing usmart_port.o(.rev16_text), (4 bytes).
    Removing usmart_port.o(.revsh_text), (4 bytes).
    Removing usmart_port.o(.rrx_text), (6 bytes).
    Removing usmart_str.o(.rev16_text), (4 bytes).
    Removing usmart_str.o(.revsh_text), (4 bytes).
    Removing usmart_str.o(.rrx_text), (6 bytes).
    Removing malloc.o(.rev16_text), (4 bytes).
    Removing malloc.o(.revsh_text), (4 bytes).
    Removing malloc.o(.rrx_text), (6 bytes).
    Removing malloc.o(i.my_mem_copy), (26 bytes).
    Removing malloc.o(i.myrealloc), (68 bytes).
    Removing diskio.o(.rev16_text), (4 bytes).
    Removing diskio.o(.revsh_text), (4 bytes).
    Removing diskio.o(.rrx_text), (6 bytes).
    Removing ff.o(i.create_partition), (346 bytes).
    Removing ff.o(i.f_closedir), (24 bytes).
    Removing ff.o(i.f_getfree), (348 bytes).
    Removing ff.o(i.f_getlabel), (316 bytes).
    Removing ff.o(i.f_gets), (80 bytes).
    Removing ff.o(i.f_mkfs), (3580 bytes).
    Removing ff.o(i.f_printf), (692 bytes).
    Removing ff.o(i.f_putc), (34 bytes).
    Removing ff.o(i.f_puts), (44 bytes).
    Removing ff.o(i.f_rename), (516 bytes).
    Removing ff.o(i.f_setlabel), (492 bytes).
    Removing ff.o(i.f_stat), (96 bytes).
    Removing ff.o(i.f_truncate), (214 bytes).
    Removing ff.o(i.putc_bfd), (68 bytes).
    Removing ff.o(i.putc_flush), (44 bytes).
    Removing ff.o(i.putc_init), (18 bytes).
    Removing ff.o(i.xsum32), (26 bytes).
    Removing ffsystem.o(.rev16_text), (4 bytes).
    Removing ffsystem.o(.revsh_text), (4 bytes).
    Removing ffsystem.o(.rrx_text), (6 bytes).
    Removing exfuns.o(.rev16_text), (4 bytes).
    Removing exfuns.o(.revsh_text), (4 bytes).
    Removing exfuns.o(.rrx_text), (6 bytes).
    Removing exfuns.o(i.exfuns_file_copy), (396 bytes).
    Removing exfuns.o(i.exfuns_folder_copy), (480 bytes).
    Removing exfuns.o(i.exfuns_get_folder_size), (232 bytes).
    Removing exfuns.o(i.exfuns_get_free), (74 bytes).
    Removing exfuns.o(i.exfuns_get_src_dname), (46 bytes).
    Removing fattester.o(.rev16_text), (4 bytes).
    Removing fattester.o(.revsh_text), (4 bytes).
    Removing fattester.o(.rrx_text), (6 bytes).
    Removing fattester.o(i.mf_close), (20 bytes).
    Removing fattester.o(i.mf_closedir), (16 bytes).
    Removing fattester.o(i.mf_fmkfs), (44 bytes).
    Removing fattester.o(i.mf_getlabel), (132 bytes).
    Removing fattester.o(i.mf_gets), (72 bytes).
    Removing fattester.o(i.mf_lseek), (24 bytes).
    Removing fattester.o(i.mf_mkdir), (12 bytes).
    Removing fattester.o(i.mf_mount), (24 bytes).
    Removing fattester.o(i.mf_open), (28 bytes).
    Removing fattester.o(i.mf_opendir), (20 bytes).
    Removing fattester.o(i.mf_putc), (24 bytes).
    Removing fattester.o(i.mf_puts), (24 bytes).
    Removing fattester.o(i.mf_read), (348 bytes).
    Removing fattester.o(i.mf_readdir), (628 bytes).
    Removing fattester.o(i.mf_rename), (16 bytes).
    Removing fattester.o(i.mf_setlabel), (92 bytes).
    Removing fattester.o(i.mf_showfree), (168 bytes).
    Removing fattester.o(i.mf_size), (12 bytes).
    Removing fattester.o(i.mf_tell), (12 bytes).
    Removing fattester.o(i.mf_unlink), (12 bytes).
    Removing fattester.o(i.mf_write), (196 bytes).
    Removing fattester.o(.constdata), (16 bytes).
    Removing myffunicode.o(.rev16_text), (4 bytes).
    Removing myffunicode.o(.revsh_text), (4 bytes).
    Removing myffunicode.o(.rrx_text), (6 bytes).
    Removing fonts.o(.rev16_text), (4 bytes).
    Removing fonts.o(.revsh_text), (4 bytes).
    Removing fonts.o(.rrx_text), (6 bytes).
    Removing fonts.o(i.fonts_progress_show), (164 bytes).
    Removing fonts.o(i.fonts_update_font), (512 bytes).
    Removing fonts.o(i.fonts_update_fontx), (356 bytes).
    Removing fonts.o(.constdata), (32 bytes).
    Removing fonts.o(.conststring), (176 bytes).
    Removing text.o(.rev16_text), (4 bytes).
    Removing text.o(.revsh_text), (4 bytes).
    Removing text.o(.rrx_text), (6 bytes).
    Removing text.o(i.text_show_string_middle), (116 bytes).
    Removing bmp.o(.rev16_text), (4 bytes).
    Removing bmp.o(.revsh_text), (4 bytes).
    Removing bmp.o(.rrx_text), (6 bytes).
    Removing bmp.o(i.minibmp_decode), (984 bytes).
    Removing gif.o(.rev16_text), (4 bytes).
    Removing gif.o(.revsh_text), (4 bytes).
    Removing gif.o(.rrx_text), (6 bytes).
    Removing gif.o(i.gif_quit), (12 bytes).
    Removing piclib.o(.rev16_text), (4 bytes).
    Removing piclib.o(.revsh_text), (4 bytes).
    Removing piclib.o(.rrx_text), (6 bytes).
    Removing piclib.o(i.piclib_alpha_blend), (48 bytes).
    Removing tjpgd.o(.rev16_text), (4 bytes).
    Removing tjpgd.o(.revsh_text), (4 bytes).
    Removing tjpgd.o(.rrx_text), (6 bytes).
    Removing tjpgd.o(i.jpg_get_size), (88 bytes).
    Removing atk_frec.o(.rev16_text), (4 bytes).
    Removing atk_frec.o(.revsh_text), (4 bytes).
    Removing atk_frec.o(.rrx_text), (6 bytes).
    Removing gabor.o(i.printMatrix), (30 bytes).

213 unused section(s) (total 17688 bytes) removed from the image.

==============================================================================

Image Symbol Table

    Local Symbols

    Symbol Name                              Value     Ov Type        Size  Object(Section)

    ../clib/angel/boardlib.s                 0x00000000   Number         0  boardshut.o ABSOLUTE
    ../clib/angel/boardlib.s                 0x00000000   Number         0  boardinit1.o ABSOLUTE
    ../clib/angel/boardlib.s                 0x00000000   Number         0  boardinit3.o ABSOLUTE
    ../clib/angel/boardlib.s                 0x00000000   Number         0  boardinit2.o ABSOLUTE
    ../clib/angel/dczerorl2.s                0x00000000   Number         0  __dczerorl2.o ABSOLUTE
    ../clib/angel/handlers.s                 0x00000000   Number         0  __scatter_zi.o ABSOLUTE
    ../clib/angel/kernel.s                   0x00000000   Number         0  rtexit2.o ABSOLUTE
    ../clib/angel/kernel.s                   0x00000000   Number         0  __rtentry4.o ABSOLUTE
    ../clib/angel/kernel.s                   0x00000000   Number         0  rtexit.o ABSOLUTE
    ../clib/angel/kernel.s                   0x00000000   Number         0  __rtentry2.o ABSOLUTE
    ../clib/angel/kernel.s                   0x00000000   Number         0  __rtentry.o ABSOLUTE
    ../clib/angel/rt.s                       0x00000000   Number         0  rt_raise.o ABSOLUTE
    ../clib/angel/rt.s                       0x00000000   Number         0  aeabi_ldiv0.o ABSOLUTE
    ../clib/angel/rt.s                       0x00000000   Number         0  aeabi_ldiv0_sigfpe.o ABSOLUTE
    ../clib/angel/rt.s                       0x00000000   Number         0  rt_errno_addr.o ABSOLUTE
    ../clib/angel/rt.s                       0x00000000   Number         0  rt_errno_addr_intlibspace.o ABSOLUTE
    ../clib/angel/rt.s                       0x00000000   Number         0  rt_div0.o ABSOLUTE
    ../clib/angel/scatter.s                  0x00000000   Number         0  __scatter.o ABSOLUTE
    ../clib/angel/startup.s                  0x00000000   Number         0  __main.o ABSOLUTE
    ../clib/angel/sys.s                      0x00000000   Number         0  libspace.o ABSOLUTE
    ../clib/angel/sys.s                      0x00000000   Number         0  sys_stackheap_outer.o ABSOLUTE
    ../clib/angel/sys.s                      0x00000000   Number         0  use_no_semi.o ABSOLUTE
    ../clib/angel/sys.s                      0x00000000   Number         0  use_no_semi_2.o ABSOLUTE
    ../clib/armsys.c                         0x00000000   Number         0  argv_veneer.o ABSOLUTE
    ../clib/armsys.c                         0x00000000   Number         0  argv_veneer.o ABSOLUTE
    ../clib/armsys.c                         0x00000000   Number         0  _get_argv_nomalloc.o ABSOLUTE
    ../clib/armsys.c                         0x00000000   Number         0  no_argv.o ABSOLUTE
    ../clib/fenv.c                           0x00000000   Number         0  _rserrno.o ABSOLUTE
    ../clib/heapalloc.c                      0x00000000   Number         0  hrguard.o ABSOLUTE
    ../clib/heapaux.c                        0x00000000   Number         0  heapauxi.o ABSOLUTE
    ../clib/libinit.s                        0x00000000   Number         0  libshutdown2.o ABSOLUTE
    ../clib/libinit.s                        0x00000000   Number         0  libshutdown.o ABSOLUTE
    ../clib/libinit.s                        0x00000000   Number         0  libinit2.o ABSOLUTE
    ../clib/libinit.s                        0x00000000   Number         0  libinit.o ABSOLUTE
    ../clib/longlong.s                       0x00000000   Number         0  llsdiv.o ABSOLUTE
    ../clib/longlong.s                       0x00000000   Number         0  lludiv10.o ABSOLUTE
    ../clib/longlong.s                       0x00000000   Number         0  lludivv7m.o ABSOLUTE
    ../clib/memcpset.s                       0x00000000   Number         0  strcmpv7m.o ABSOLUTE
    ../clib/memcpset.s                       0x00000000   Number         0  rt_memclr.o ABSOLUTE
    ../clib/memcpset.s                       0x00000000   Number         0  rt_memcpy_w.o ABSOLUTE
    ../clib/memcpset.s                       0x00000000   Number         0  rt_memclr_w.o ABSOLUTE
    ../clib/memcpset.s                       0x00000000   Number         0  rt_memcpy_v6.o ABSOLUTE
    ../clib/memcpset.s                       0x00000000   Number         0  aeabi_memset.o ABSOLUTE
    ../clib/misc.s                           0x00000000   Number         0  printf_stubs.o ABSOLUTE
    ../clib/printf.c                         0x00000000   Number         0  __printf_flags_ss.o ABSOLUTE
    ../clib/printf.c                         0x00000000   Number         0  __printf_wp.o ABSOLUTE
    ../clib/printf.c                         0x00000000   Number         0  _printf_hex_ll.o ABSOLUTE
    ../clib/printf.c                         0x00000000   Number         0  _printf_dec.o ABSOLUTE
    ../clib/printf.c                         0x00000000   Number         0  _printf_str.o ABSOLUTE
    ../clib/printf.c                         0x00000000   Number         0  _printf_char_file.o ABSOLUTE
    ../clib/printf.c                         0x00000000   Number         0  _printf_hex_int.o ABSOLUTE
    ../clib/printf.c                         0x00000000   Number         0  _printf_pad.o ABSOLUTE
    ../clib/printf.c                         0x00000000   Number         0  __printf.o ABSOLUTE
    ../clib/printf.c                         0x00000000   Number         0  _printf_hex_int_ll.o ABSOLUTE
    ../clib/printf.c                         0x00000000   Number         0  _printf_hex_ptr.o ABSOLUTE
    ../clib/printf.c                         0x00000000   Number         0  _printf_char.o ABSOLUTE
    ../clib/printf.c                         0x00000000   Number         0  noretval__2sprintf.o ABSOLUTE
    ../clib/printf.c                         0x00000000   Number         0  noretval__2printf.o ABSOLUTE
    ../clib/printf.c                         0x00000000   Number         0  __2sprintf.o ABSOLUTE
    ../clib/printf.c                         0x00000000   Number         0  __printf_ss_wp.o ABSOLUTE
    ../clib/printf.c                         0x00000000   Number         0  __2printf.o ABSOLUTE
    ../clib/printf.c                         0x00000000   Number         0  _sputc.o ABSOLUTE
    ../clib/printf.c                         0x00000000   Number         0  _printf_char_common.o ABSOLUTE
    ../clib/printf.c                         0x00000000   Number         0  __printf_flags_wp.o ABSOLUTE
    ../clib/printf.c                         0x00000000   Number         0  _printf_hex_int_ptr.o ABSOLUTE
    ../clib/printf.c                         0x00000000   Number         0  _printf_intcommon.o ABSOLUTE
    ../clib/printf.c                         0x00000000   Number         0  _printf_hex_ll_ptr.o ABSOLUTE
    ../clib/printf.c                         0x00000000   Number         0  _printf_longlong_dec.o ABSOLUTE
    ../clib/printf.c                         0x00000000   Number         0  __printf_flags_ss_wp.o ABSOLUTE
    ../clib/printf.c                         0x00000000   Number         0  __printf_ss.o ABSOLUTE
    ../clib/printf.c                         0x00000000   Number         0  __printf_nopercent.o ABSOLUTE
    ../clib/printf.c                         0x00000000   Number         0  _printf_hex_int_ll_ptr.o ABSOLUTE
    ../clib/printf.c                         0x00000000   Number         0  __printf_flags.o ABSOLUTE
    ../clib/printf_percent.s                 0x00000000   Number         0  _printf_c.o ABSOLUTE
    ../clib/printf_percent.s                 0x00000000   Number         0  _printf_percent.o ABSOLUTE
    ../clib/printf_percent.s                 0x00000000   Number         0  _printf_percent_end.o ABSOLUTE
    ../clib/printf_percent.s                 0x00000000   Number         0  _printf_ll.o ABSOLUTE
    ../clib/printf_percent.s                 0x00000000   Number         0  _printf_lld.o ABSOLUTE
    ../clib/printf_percent.s                 0x00000000   Number         0  _printf_x.o ABSOLUTE
    ../clib/printf_percent.s                 0x00000000   Number         0  _printf_d.o ABSOLUTE
    ../clib/printf_percent.s                 0x00000000   Number         0  _printf_s.o ABSOLUTE
    ../clib/printf_percent.s                 0x00000000   Number         0  _printf_u.o ABSOLUTE
    ../clib/signal.c                         0x00000000   Number         0  defsig_fpe_formal.o ABSOLUTE
    ../clib/signal.c                         0x00000000   Number         0  defsig_rtmem_outer.o ABSOLUTE
    ../clib/signal.c                         0x00000000   Number         0  defsig_rtmem_inner.o ABSOLUTE
    ../clib/signal.c                         0x00000000   Number         0  defsig_rtred_inner.o ABSOLUTE
    ../clib/signal.c                         0x00000000   Number         0  defsig_abrt_inner.o ABSOLUTE
    ../clib/signal.c                         0x00000000   Number         0  __raise.o ABSOLUTE
    ../clib/signal.c                         0x00000000   Number         0  defsig_general.o ABSOLUTE
    ../clib/signal.c                         0x00000000   Number         0  defsig_exit.o ABSOLUTE
    ../clib/signal.c                         0x00000000   Number         0  defsig_fpe_outer.o ABSOLUTE
    ../clib/signal.c                         0x00000000   Number         0  defsig_fpe_inner.o ABSOLUTE
    ../clib/signal.c                         0x00000000   Number         0  defsig_other.o ABSOLUTE
    ../clib/signal.c                         0x00000000   Number         0  defsig_segv_inner.o ABSOLUTE
    ../clib/signal.c                         0x00000000   Number         0  defsig_cppl_inner.o ABSOLUTE
    ../clib/signal.c                         0x00000000   Number         0  defsig_pvfn_inner.o ABSOLUTE
    ../clib/signal.c                         0x00000000   Number         0  defsig_stak_inner.o ABSOLUTE
    ../clib/signal.c                         0x00000000   Number         0  defsig_rtmem_formal.o ABSOLUTE
    ../clib/signal.s                         0x00000000   Number         0  defsig.o ABSOLUTE
    ../clib/stdio.c                          0x00000000   Number         0  ferror.o ABSOLUTE
    ../clib/stdio.c                          0x00000000   Number         0  ferror_locked.o ABSOLUTE
    ../clib/stdlib.c                         0x00000000   Number         0  exit.o ABSOLUTE
    ../clib/string.c                         0x00000000   Number         0  memcmp.o ABSOLUTE
    ../clib/string.c                         0x00000000   Number         0  strcpy.o ABSOLUTE
    ../clib/string.c                         0x00000000   Number         0  strchr.o ABSOLUTE
    ../clib/string.c                         0x00000000   Number         0  strcat.o ABSOLUTE
    ../clib/string.c                         0x00000000   Number         0  strlen.o ABSOLUTE
    ../fplib/basic.s                         0x00000000   Number         0  basic.o ABSOLUTE
    ../fplib/d2f.s                           0x00000000   Number         0  d2f.o ABSOLUTE
    ../fplib/daddsub.s                       0x00000000   Number         0  daddsub_clz.o ABSOLUTE
    ../fplib/dcheck1.s                       0x00000000   Number         0  dcheck1.o ABSOLUTE
    ../fplib/dcmpi.s                         0x00000000   Number         0  dcmpi.o ABSOLUTE
    ../fplib/ddiv.s                          0x00000000   Number         0  ddiv.o ABSOLUTE
    ../fplib/deqf.s                          0x00000000   Number         0  deqf.o ABSOLUTE
    ../fplib/dfix.s                          0x00000000   Number         0  dfix.o ABSOLUTE
    ../fplib/dfixu.s                         0x00000000   Number         0  dfixu.o ABSOLUTE
    ../fplib/dflt.s                          0x00000000   Number         0  dflt_clz.o ABSOLUTE
    ../fplib/dleqf.s                         0x00000000   Number         0  dleqf.o ABSOLUTE
    ../fplib/dmul.s                          0x00000000   Number         0  dmul.o ABSOLUTE
    ../fplib/dnaninf.s                       0x00000000   Number         0  dnaninf.o ABSOLUTE
    ../fplib/dretinf.s                       0x00000000   Number         0  dretinf.o ABSOLUTE
    ../fplib/drleqf.s                        0x00000000   Number         0  drleqf.o ABSOLUTE
    ../fplib/dsqrt.s                         0x00000000   Number         0  dsqrt_umaal.o ABSOLUTE
    ../fplib/f2d.s                           0x00000000   Number         0  f2d.o ABSOLUTE
    ../fplib/fnaninf.s                       0x00000000   Number         0  fnaninf.o ABSOLUTE
    ../fplib/fpinit.s                        0x00000000   Number         0  fpinit.o ABSOLUTE
    ../fplib/fretinf.s                       0x00000000   Number         0  fretinf.o ABSOLUTE
    ../fplib/retnan.s                        0x00000000   Number         0  retnan.o ABSOLUTE
    ../fplib/scalbn.s                        0x00000000   Number         0  scalbn.o ABSOLUTE
    ../fplib/trapv.s                         0x00000000   Number         0  trapv.o ABSOLUTE
    ../fplib/usenofp.s                       0x00000000   Number         0  usenofp.o ABSOLUTE
    ../mathlib/ceil.c                        0x00000000   Number         0  ceil.o ABSOLUTE
    ../mathlib/cos.c                         0x00000000   Number         0  cos.o ABSOLUTE
    ../mathlib/cos.c                         0x00000000   Number         0  cos_x.o ABSOLUTE
    ../mathlib/cos_i.c                       0x00000000   Number         0  cos_i.o ABSOLUTE
    ../mathlib/dunder.c                      0x00000000   Number         0  dunder.o ABSOLUTE
    ../mathlib/exp.c                         0x00000000   Number         0  exp.o ABSOLUTE
    ../mathlib/exp.c                         0x00000000   Number         0  exp_x.o ABSOLUTE
    ../mathlib/fabs.c                        0x00000000   Number         0  fabs.o ABSOLUTE
    ../mathlib/fpclassify.c                  0x00000000   Number         0  fpclassify.o ABSOLUTE
    ../mathlib/log.c                         0x00000000   Number         0  log_x.o ABSOLUTE
    ../mathlib/log.c                         0x00000000   Number         0  log.o ABSOLUTE
    ../mathlib/log10.c                       0x00000000   Number         0  log10_x.o ABSOLUTE
    ../mathlib/log10.c                       0x00000000   Number         0  log10.o ABSOLUTE
    ../mathlib/poly.c                        0x00000000   Number         0  poly.o ABSOLUTE
    ../mathlib/pow.c                         0x00000000   Number         0  pow_x.o ABSOLUTE
    ../mathlib/pow.c                         0x00000000   Number         0  pow.o ABSOLUTE
    ../mathlib/qnan.c                        0x00000000   Number         0  qnan.o ABSOLUTE
    ../mathlib/rred.c                        0x00000000   Number         0  rred.o ABSOLUTE
    ../mathlib/sin.c                         0x00000000   Number         0  sin.o ABSOLUTE
    ../mathlib/sin.c                         0x00000000   Number         0  sin_x.o ABSOLUTE
    ../mathlib/sin_i.c                       0x00000000   Number         0  sin_i_x.o ABSOLUTE
    ../mathlib/sin_i.c                       0x00000000   Number         0  sin_i.o ABSOLUTE
    ../mathlib/sqrt.c                        0x00000000   Number         0  sqrt.o ABSOLUTE
    ../mathlib/sqrt.c                        0x00000000   Number         0  sqrt_x.o ABSOLUTE
    ../mathlib/tan.c                         0x00000000   Number         0  tan_x.o ABSOLUTE
    ../mathlib/tan.c                         0x00000000   Number         0  tan.o ABSOLUTE
    ../mathlib/tan_i.c                       0x00000000   Number         0  tan_i.o ABSOLUTE
    ../mathlib/tan_i.c                       0x00000000   Number         0  tan_i_x.o ABSOLUTE
    ..\..\Drivers\BSP\BEEP\beep.c            0x00000000   Number         0  beep.o ABSOLUTE
    ..\..\Drivers\BSP\DCMI\dcmi.c            0x00000000   Number         0  dcmi.o ABSOLUTE
    ..\..\Drivers\BSP\KEY\key.c              0x00000000   Number         0  key.o ABSOLUTE
    ..\..\Drivers\BSP\LCD\lcd.c              0x00000000   Number         0  lcd.o ABSOLUTE
    ..\..\Drivers\BSP\LED\led.c              0x00000000   Number         0  led.o ABSOLUTE
    ..\..\Drivers\BSP\NORFLASH\norflash.c    0x00000000   Number         0  norflash.o ABSOLUTE
    ..\..\Drivers\BSP\OV2640\ov2640.c        0x00000000   Number         0  ov2640.o ABSOLUTE
    ..\..\Drivers\BSP\OV2640\sccb.c          0x00000000   Number         0  sccb.o ABSOLUTE
    ..\..\Drivers\BSP\PWMDAC\pwmdac.c        0x00000000   Number         0  pwmdac.o ABSOLUTE
    ..\..\Drivers\BSP\SDIO\sdio_sdcard.c     0x00000000   Number         0  sdio_sdcard.o ABSOLUTE
    ..\..\Drivers\BSP\SPI\spi.c              0x00000000   Number         0  spi.o ABSOLUTE
    ..\..\Drivers\BSP\SRAM\sram.c            0x00000000   Number         0  sram.o ABSOLUTE
    ..\..\Drivers\BSP\TIMER\btim.c           0x00000000   Number         0  btim.o ABSOLUTE
    ..\..\Drivers\BSP\USART2\usart2.c        0x00000000   Number         0  usart2.o ABSOLUTE
    ..\..\Drivers\CMSIS\Device\ST\STM32F4xx\Source\Templates\arm\startup_stm32f407xx.s 0x00000000   Number         0  startup_stm32f407xx.o ABSOLUTE
    ..\..\Drivers\SYSTEM\delay\delay.c       0x00000000   Number         0  delay.o ABSOLUTE
    ..\..\Drivers\SYSTEM\sys\sys.c           0x00000000   Number         0  sys.o ABSOLUTE
    ..\..\Drivers\SYSTEM\usart\usart.c       0x00000000   Number         0  usart.o ABSOLUTE
    ..\..\Middlewares\FATFS\exfuns\exfuns.c  0x00000000   Number         0  exfuns.o ABSOLUTE
    ..\..\Middlewares\FATFS\exfuns\fattester.c 0x00000000   Number         0  fattester.o ABSOLUTE
    ..\..\Middlewares\FATFS\exfuns\myffunicode.c 0x00000000   Number         0  myffunicode.o ABSOLUTE
    ..\..\Middlewares\FATFS\source\diskio.c  0x00000000   Number         0  diskio.o ABSOLUTE
    ..\..\Middlewares\FATFS\source\ff.c      0x00000000   Number         0  ff.o ABSOLUTE
    ..\..\Middlewares\FATFS\source\ffsystem.c 0x00000000   Number         0  ffsystem.o ABSOLUTE
    ..\..\Middlewares\MALLOC\malloc.c        0x00000000   Number         0  malloc.o ABSOLUTE
    ..\..\Middlewares\PICTURE\bmp.c          0x00000000   Number         0  bmp.o ABSOLUTE
    ..\..\Middlewares\PICTURE\gif.c          0x00000000   Number         0  gif.o ABSOLUTE
    ..\..\Middlewares\PICTURE\piclib.c       0x00000000   Number         0  piclib.o ABSOLUTE
    ..\..\Middlewares\PICTURE\tjpgd.c        0x00000000   Number         0  tjpgd.o ABSOLUTE
    ..\..\Middlewares\TEXT\fonts.c           0x00000000   Number         0  fonts.o ABSOLUTE
    ..\..\Middlewares\TEXT\text.c            0x00000000   Number         0  text.o ABSOLUTE
    ..\..\Middlewares\USMART\usmart.c        0x00000000   Number         0  usmart.o ABSOLUTE
    ..\..\Middlewares\USMART\usmart_config.c 0x00000000   Number         0  usmart_config.o ABSOLUTE
    ..\..\Middlewares\USMART\usmart_port.c   0x00000000   Number         0  usmart_port.o ABSOLUTE
    ..\..\Middlewares\USMART\usmart_str.c    0x00000000   Number         0  usmart_str.o ABSOLUTE
    ..\..\User\ATKFREC\atk_frec.c            0x00000000   Number         0  atk_frec.o ABSOLUTE
    ..\..\User\SYN6288\syn6288.c             0x00000000   Number         0  syn6288.o ABSOLUTE
    ..\..\User\face_recognition.c            0x00000000   Number         0  face_recognition.o ABSOLUTE
    ..\..\User\main.c                        0x00000000   Number         0  main.o ABSOLUTE
    ..\ATKFREC\gabor.c                       0x00000000   Number         0  gabor.o ABSOLUTE
    ..\ATKFREC\matrix.c                      0x00000000   Number         0  matrix.o ABSOLUTE
    ..\ATKFREC\recog.c                       0x00000000   Number         0  recog.o ABSOLUTE
    ..\\..\\Drivers\\BSP\\BEEP\\beep.c       0x00000000   Number         0  beep.o ABSOLUTE
    ..\\..\\Drivers\\BSP\\DCMI\\dcmi.c       0x00000000   Number         0  dcmi.o ABSOLUTE
    ..\\..\\Drivers\\BSP\\KEY\\key.c         0x00000000   Number         0  key.o ABSOLUTE
    ..\\..\\Drivers\\BSP\\LCD\\lcd.c         0x00000000   Number         0  lcd.o ABSOLUTE
    ..\\..\\Drivers\\BSP\\LED\\led.c         0x00000000   Number         0  led.o ABSOLUTE
    ..\\..\\Drivers\\BSP\\NORFLASH\\norflash.c 0x00000000   Number         0  norflash.o ABSOLUTE
    ..\\..\\Drivers\\BSP\\OV2640\\ov2640.c   0x00000000   Number         0  ov2640.o ABSOLUTE
    ..\\..\\Drivers\\BSP\\OV2640\\sccb.c     0x00000000   Number         0  sccb.o ABSOLUTE
    ..\\..\\Drivers\\BSP\\PWMDAC\\pwmdac.c   0x00000000   Number         0  pwmdac.o ABSOLUTE
    ..\\..\\Drivers\\BSP\\SDIO\\sdio_sdcard.c 0x00000000   Number         0  sdio_sdcard.o ABSOLUTE
    ..\\..\\Drivers\\BSP\\SPI\\spi.c         0x00000000   Number         0  spi.o ABSOLUTE
    ..\\..\\Drivers\\BSP\\SRAM\\sram.c       0x00000000   Number         0  sram.o ABSOLUTE
    ..\\..\\Drivers\\BSP\\TIMER\\btim.c      0x00000000   Number         0  btim.o ABSOLUTE
    ..\\..\\Drivers\\BSP\\USART2\\usart2.c   0x00000000   Number         0  usart2.o ABSOLUTE
    ..\\..\\Drivers\\SYSTEM\\delay\\delay.c  0x00000000   Number         0  delay.o ABSOLUTE
    ..\\..\\Drivers\\SYSTEM\\sys\\sys.c      0x00000000   Number         0  sys.o ABSOLUTE
    ..\\..\\Drivers\\SYSTEM\\usart\\usart.c  0x00000000   Number         0  usart.o ABSOLUTE
    ..\\..\\Middlewares\\FATFS\\exfuns\\exfuns.c 0x00000000   Number         0  exfuns.o ABSOLUTE
    ..\\..\\Middlewares\\FATFS\\exfuns\\fattester.c 0x00000000   Number         0  fattester.o ABSOLUTE
    ..\\..\\Middlewares\\FATFS\\exfuns\\myffunicode.c 0x00000000   Number         0  myffunicode.o ABSOLUTE
    ..\\..\\Middlewares\\FATFS\\source\\diskio.c 0x00000000   Number         0  diskio.o ABSOLUTE
    ..\\..\\Middlewares\\FATFS\\source\\ffsystem.c 0x00000000   Number         0  ffsystem.o ABSOLUTE
    ..\\..\\Middlewares\\MALLOC\\malloc.c    0x00000000   Number         0  malloc.o ABSOLUTE
    ..\\..\\Middlewares\\PICTURE\\bmp.c      0x00000000   Number         0  bmp.o ABSOLUTE
    ..\\..\\Middlewares\\PICTURE\\gif.c      0x00000000   Number         0  gif.o ABSOLUTE
    ..\\..\\Middlewares\\PICTURE\\piclib.c   0x00000000   Number         0  piclib.o ABSOLUTE
    ..\\..\\Middlewares\\PICTURE\\tjpgd.c    0x00000000   Number         0  tjpgd.o ABSOLUTE
    ..\\..\\Middlewares\\TEXT\\fonts.c       0x00000000   Number         0  fonts.o ABSOLUTE
    ..\\..\\Middlewares\\TEXT\\text.c        0x00000000   Number         0  text.o ABSOLUTE
    ..\\..\\Middlewares\\USMART\\usmart.c    0x00000000   Number         0  usmart.o ABSOLUTE
    ..\\..\\Middlewares\\USMART\\usmart_config.c 0x00000000   Number         0  usmart_config.o ABSOLUTE
    ..\\..\\Middlewares\\USMART\\usmart_port.c 0x00000000   Number         0  usmart_port.o ABSOLUTE
    ..\\..\\Middlewares\\USMART\\usmart_str.c 0x00000000   Number         0  usmart_str.o ABSOLUTE
    ..\\..\\User\\ATKFREC\\atk_frec.c        0x00000000   Number         0  atk_frec.o ABSOLUTE
    ..\\..\\User\\SYN6288\\syn6288.c         0x00000000   Number         0  syn6288.o ABSOLUTE
    ..\\..\\User\\face_recognition.c         0x00000000   Number         0  face_recognition.o ABSOLUTE
    ..\\..\\User\\main.c                     0x00000000   Number         0  main.o ABSOLUTE
    dc.s                                     0x00000000   Number         0  dc.o ABSOLUTE
    RESET                                    0x08000000   Section      392  startup_stm32f407xx.o(RESET)
    !!!main                                  0x08000188   Section        8  __main.o(!!!main)
    !!!scatter                               0x08000190   Section       52  __scatter.o(!!!scatter)
    !!dczerorl2                              0x080001c4   Section       90  __dczerorl2.o(!!dczerorl2)
    !!handler_zi                             0x08000220   Section       28  __scatter_zi.o(!!handler_zi)
    .ARM.Collect$$_printf_percent$$00000000  0x0800023c   Section        0  _printf_percent.o(.ARM.Collect$$_printf_percent$$00000000)
    .ARM.Collect$$_printf_percent$$00000009  0x0800023c   Section        6  _printf_d.o(.ARM.Collect$$_printf_percent$$00000009)
    .ARM.Collect$$_printf_percent$$0000000A  0x08000242   Section        6  _printf_u.o(.ARM.Collect$$_printf_percent$$0000000A)
    .ARM.Collect$$_printf_percent$$0000000C  0x08000248   Section        6  _printf_x.o(.ARM.Collect$$_printf_percent$$0000000C)
    .ARM.Collect$$_printf_percent$$00000013  0x0800024e   Section        6  _printf_c.o(.ARM.Collect$$_printf_percent$$00000013)
    .ARM.Collect$$_printf_percent$$00000014  0x08000254   Section        6  _printf_s.o(.ARM.Collect$$_printf_percent$$00000014)
    .ARM.Collect$$_printf_percent$$00000017  0x0800025a   Section        4  _printf_percent_end.o(.ARM.Collect$$_printf_percent$$00000017)
    .ARM.Collect$$libinit$$00000000          0x0800025e   Section        2  libinit.o(.ARM.Collect$$libinit$$00000000)
    .ARM.Collect$$libinit$$00000001          0x08000260   Section        4  libinit2.o(.ARM.Collect$$libinit$$00000001)
    .ARM.Collect$$libinit$$00000004          0x08000264   Section        0  libinit2.o(.ARM.Collect$$libinit$$00000004)
    .ARM.Collect$$libinit$$0000000A          0x08000264   Section        0  libinit2.o(.ARM.Collect$$libinit$$0000000A)
    .ARM.Collect$$libinit$$0000000C          0x08000264   Section        0  libinit2.o(.ARM.Collect$$libinit$$0000000C)
    .ARM.Collect$$libinit$$0000000E          0x08000264   Section        0  libinit2.o(.ARM.Collect$$libinit$$0000000E)
    .ARM.Collect$$libinit$$00000011          0x08000264   Section        0  libinit2.o(.ARM.Collect$$libinit$$00000011)
    .ARM.Collect$$libinit$$00000013          0x08000264   Section        0  libinit2.o(.ARM.Collect$$libinit$$00000013)
    .ARM.Collect$$libinit$$00000015          0x08000264   Section        0  libinit2.o(.ARM.Collect$$libinit$$00000015)
    .ARM.Collect$$libinit$$00000017          0x08000264   Section        0  libinit2.o(.ARM.Collect$$libinit$$00000017)
    .ARM.Collect$$libinit$$00000019          0x08000264   Section        0  libinit2.o(.ARM.Collect$$libinit$$00000019)
    .ARM.Collect$$libinit$$0000001B          0x08000264   Section        0  libinit2.o(.ARM.Collect$$libinit$$0000001B)
    .ARM.Collect$$libinit$$0000001D          0x08000264   Section        0  libinit2.o(.ARM.Collect$$libinit$$0000001D)
    .ARM.Collect$$libinit$$0000001F          0x08000264   Section        0  libinit2.o(.ARM.Collect$$libinit$$0000001F)
    .ARM.Collect$$libinit$$00000021          0x08000264   Section        0  libinit2.o(.ARM.Collect$$libinit$$00000021)
    .ARM.Collect$$libinit$$00000023          0x08000264   Section        0  libinit2.o(.ARM.Collect$$libinit$$00000023)
    .ARM.Collect$$libinit$$00000025          0x08000264   Section        0  libinit2.o(.ARM.Collect$$libinit$$00000025)
    .ARM.Collect$$libinit$$0000002C          0x08000264   Section        0  libinit2.o(.ARM.Collect$$libinit$$0000002C)
    .ARM.Collect$$libinit$$0000002E          0x08000264   Section        0  libinit2.o(.ARM.Collect$$libinit$$0000002E)
    .ARM.Collect$$libinit$$00000030          0x08000264   Section        0  libinit2.o(.ARM.Collect$$libinit$$00000030)
    .ARM.Collect$$libinit$$00000032          0x08000264   Section        0  libinit2.o(.ARM.Collect$$libinit$$00000032)
    .ARM.Collect$$libinit$$00000033          0x08000264   Section        2  libinit2.o(.ARM.Collect$$libinit$$00000033)
    .ARM.Collect$$libshutdown$$00000000      0x08000266   Section        2  libshutdown.o(.ARM.Collect$$libshutdown$$00000000)
    .ARM.Collect$$libshutdown$$00000002      0x08000268   Section        0  libshutdown2.o(.ARM.Collect$$libshutdown$$00000002)
    .ARM.Collect$$libshutdown$$00000004      0x08000268   Section        0  libshutdown2.o(.ARM.Collect$$libshutdown$$00000004)
    .ARM.Collect$$libshutdown$$00000006      0x08000268   Section        0  libshutdown2.o(.ARM.Collect$$libshutdown$$00000006)
    .ARM.Collect$$libshutdown$$00000009      0x08000268   Section        0  libshutdown2.o(.ARM.Collect$$libshutdown$$00000009)
    .ARM.Collect$$libshutdown$$0000000C      0x08000268   Section        0  libshutdown2.o(.ARM.Collect$$libshutdown$$0000000C)
    .ARM.Collect$$libshutdown$$0000000E      0x08000268   Section        0  libshutdown2.o(.ARM.Collect$$libshutdown$$0000000E)
    .ARM.Collect$$libshutdown$$00000011      0x08000268   Section        0  libshutdown2.o(.ARM.Collect$$libshutdown$$00000011)
    .ARM.Collect$$libshutdown$$00000012      0x08000268   Section        2  libshutdown2.o(.ARM.Collect$$libshutdown$$00000012)
    .ARM.Collect$$rtentry$$00000000          0x0800026a   Section        0  __rtentry.o(.ARM.Collect$$rtentry$$00000000)
    .ARM.Collect$$rtentry$$00000002          0x0800026a   Section        0  __rtentry2.o(.ARM.Collect$$rtentry$$00000002)
    .ARM.Collect$$rtentry$$00000004          0x0800026a   Section        6  __rtentry4.o(.ARM.Collect$$rtentry$$00000004)
    .ARM.Collect$$rtentry$$00000009          0x08000270   Section        0  __rtentry2.o(.ARM.Collect$$rtentry$$00000009)
    .ARM.Collect$$rtentry$$0000000A          0x08000270   Section        4  __rtentry2.o(.ARM.Collect$$rtentry$$0000000A)
    .ARM.Collect$$rtentry$$0000000C          0x08000274   Section        0  __rtentry2.o(.ARM.Collect$$rtentry$$0000000C)
    .ARM.Collect$$rtentry$$0000000D          0x08000274   Section        8  __rtentry2.o(.ARM.Collect$$rtentry$$0000000D)
    .ARM.Collect$$rtexit$$00000000           0x0800027c   Section        2  rtexit.o(.ARM.Collect$$rtexit$$00000000)
    .ARM.Collect$$rtexit$$00000002           0x0800027e   Section        0  rtexit2.o(.ARM.Collect$$rtexit$$00000002)
    .ARM.Collect$$rtexit$$00000003           0x0800027e   Section        4  rtexit2.o(.ARM.Collect$$rtexit$$00000003)
    .ARM.Collect$$rtexit$$00000004           0x08000282   Section        6  rtexit2.o(.ARM.Collect$$rtexit$$00000004)
    .text                                    0x08000288   Section       68  startup_stm32f407xx.o(.text)
    $v0                                      0x08000288   Number         0  startup_stm32f407xx.o(.text)
    .text                                    0x080002cc   Section        2  use_no_semi_2.o(.text)
    .text                                    0x080002ce   Section      238  lludivv7m.o(.text)
    .text                                    0x080003bc   Section       72  llsdiv.o(.text)
    .text                                    0x08000404   Section        0  noretval__2printf.o(.text)
    .text                                    0x0800041c   Section        0  noretval__2sprintf.o(.text)
    .text                                    0x08000444   Section        0  _printf_pad.o(.text)
    .text                                    0x08000492   Section        0  _printf_str.o(.text)
    .text                                    0x080004e4   Section        0  _printf_dec.o(.text)
    .text                                    0x0800055c   Section        0  _printf_hex_int.o(.text)
    .text                                    0x080005b4   Section        0  __printf_flags_ss_wp.o(.text)
    .text                                    0x0800073c   Section        0  strchr.o(.text)
    .text                                    0x08000750   Section        0  memcmp.o(.text)
    .text                                    0x080007a8   Section        0  strcpy.o(.text)
    .text                                    0x080007f0   Section        0  strlen.o(.text)
    .text                                    0x0800082e   Section      138  rt_memcpy_v6.o(.text)
    .text                                    0x080008b8   Section      100  rt_memcpy_w.o(.text)
    .text                                    0x0800091c   Section       16  aeabi_memset.o(.text)
    .text                                    0x0800092c   Section       68  rt_memclr.o(.text)
    .text                                    0x08000970   Section       78  rt_memclr_w.o(.text)
    .text                                    0x080009c0   Section      128  strcmpv7m.o(.text)
    .text                                    0x08000a40   Section        0  heapauxi.o(.text)
    .text                                    0x08000a46   Section        2  use_no_semi.o(.text)
    .text                                    0x08000a48   Section        0  _rserrno.o(.text)
    .text                                    0x08000a5e   Section        0  _printf_intcommon.o(.text)
    .text                                    0x08000b10   Section        0  _printf_char_common.o(.text)
    _printf_input_char                       0x08000b11   Thumb Code    10  _printf_char_common.o(.text)
    .text                                    0x08000b40   Section        0  _sputc.o(.text)
    .text                                    0x08000b4a   Section        0  _printf_char.o(.text)
    .text                                    0x08000b78   Section        0  _printf_char_file.o(.text)
    .text                                    0x08000b9c   Section        8  rt_errno_addr_intlibspace.o(.text)
    .text                                    0x08000ba4   Section        0  ferror.o(.text)
    .text                                    0x08000bac   Section        8  libspace.o(.text)
    .text                                    0x08000bb4   Section       74  sys_stackheap_outer.o(.text)
    .text                                    0x08000bfe   Section        0  exit.o(.text)
    i.CreateMatrix                           0x08000c10   Section        0  matrix.o(i.CreateMatrix)
    i.DCMI_IRQHandler                        0x08000ca4   Section        0  dcmi.o(i.DCMI_IRQHandler)
    i.DMA2_Stream1_IRQHandler                0x08000ce8   Section        0  dcmi.o(i.DMA2_Stream1_IRQHandler)
    i.FreeMatrix                             0x08000d14   Section        0  matrix.o(i.FreeMatrix)
    i.Gabor                                  0x08000d48   Section        0  gabor.o(i.Gabor)
    i.GaborFilterFinialize                   0x08001658   Section        0  gabor.o(i.GaborFilterFinialize)
    i.GaborFilterInitialize                  0x0800186c   Section        0  gabor.o(i.GaborFilterInitialize)
    i.GaborFilteredImg                       0x08001b74   Section        0  gabor.o(i.GaborFilteredImg)
    i.Mat_Copy                               0x08001fde   Section        0  matrix.o(i.Mat_Copy)
    i.Mat_FFT2                               0x080020a4   Section        0  matrix.o(i.Mat_FFT2)
    i.Mat_FFT_Mem_Free                       0x080021a4   Section        0  matrix.o(i.Mat_FFT_Mem_Free)
    i.Mat_FFT_Mem_Init                       0x0800225c   Section        0  matrix.o(i.Mat_FFT_Mem_Init)
    i.Mat_IFFT2                              0x0800232c   Section        0  matrix.o(i.Mat_IFFT2)
    i.Mat_Product                            0x08002450   Section        0  matrix.o(i.Mat_Product)
    i.Mat_Substract                          0x0800249e   Section        0  matrix.o(i.Mat_Substract)
    i.Mat_Sum                                0x080024ec   Section        0  matrix.o(i.Mat_Sum)
    i.Mat_Zeros                              0x0800253c   Section        0  matrix.o(i.Mat_Zeros)
    i.SYN_FrameInfo                          0x0800256c   Section        0  syn6288.o(i.SYN_FrameInfo)
    i.SensorGPIOConfig                       0x080025e8   Section        0  main.o(i.SensorGPIOConfig)
    i.SensorStatus                           0x08002614   Section        0  main.o(i.SensorStatus)
    i.TIM4_IRQHandler                        0x0800263c   Section        0  usmart_port.o(i.TIM4_IRQHandler)
    i.TIM6_DAC_IRQHandler                    0x08002678   Section        0  btim.o(i.TIM6_DAC_IRQHandler)
    i.USART1_IRQHandler                      0x080026bc   Section        0  usart.o(i.USART1_IRQHandler)
    i.USART2_SendData                        0x0800273c   Section        0  usart2.o(i.USART2_SendData)
    i.USART2_SendString                      0x08002758   Section        0  usart2.o(i.USART2_SendString)
    i.__ARM_fpclassify                       0x08002774   Section        0  fpclassify.o(i.__ARM_fpclassify)
    i.__hardfp_ceil                          0x080027a8   Section        0  ceil.o(i.__hardfp_ceil)
    i.__hardfp_cos                           0x080028c0   Section        0  cos.o(i.__hardfp_cos)
    i.__hardfp_exp                           0x08002988   Section        0  exp.o(i.__hardfp_exp)
    i.__hardfp_log                           0x08002ce0   Section        0  log.o(i.__hardfp_log)
    i.__hardfp_log10                         0x080030a8   Section        0  log10.o(i.__hardfp_log10)
    i.__hardfp_log2                          0x080031d8   Section        0  matrix.o(i.__hardfp_log2)
    i.__hardfp_pow                           0x08003228   Section        0  pow.o(i.__hardfp_pow)
    i.__hardfp_sin                           0x08003e78   Section        0  sin.o(i.__hardfp_sin)
    i.__hardfp_sqrt                          0x08003f40   Section        0  sqrt.o(i.__hardfp_sqrt)
    i.__hardfp_tan                           0x08003fc0   Section        0  tan.o(i.__hardfp_tan)
    i.__ieee754_rem_pio2                     0x08004040   Section        0  rred.o(i.__ieee754_rem_pio2)
    i.__kernel_cos                           0x08004478   Section        0  cos_i.o(i.__kernel_cos)
    i.__kernel_poly                          0x080045e8   Section        0  poly.o(i.__kernel_poly)
    i.__kernel_sin                           0x080046e0   Section        0  sin_i.o(i.__kernel_sin)
    i.__kernel_tan                           0x08004810   Section        0  tan_i.o(i.__kernel_tan)
    i.__mathlib_dbl_divzero                  0x08004b60   Section        0  dunder.o(i.__mathlib_dbl_divzero)
    i.__mathlib_dbl_infnan                   0x08004b90   Section        0  dunder.o(i.__mathlib_dbl_infnan)
    i.__mathlib_dbl_infnan2                  0x08004ba4   Section        0  dunder.o(i.__mathlib_dbl_infnan2)
    i.__mathlib_dbl_invalid                  0x08004bb8   Section        0  dunder.o(i.__mathlib_dbl_invalid)
    i.__mathlib_dbl_overflow                 0x08004bd8   Section        0  dunder.o(i.__mathlib_dbl_overflow)
    i.__mathlib_dbl_underflow                0x08004bf8   Section        0  dunder.o(i.__mathlib_dbl_underflow)
    i._is_digit                              0x08004c18   Section        0  __printf_wp.o(i._is_digit)
    i._sys_exit                              0x08004c26   Section        0  usart.o(i._sys_exit)
    i.alarm_say                              0x08004c2c   Section        0  syn6288.o(i.alarm_say)
    i.alloc_pool                             0x08004c5c   Section        0  tjpgd.o(i.alloc_pool)
    alloc_pool                               0x08004c5d   Thumb Code    34  tjpgd.o(i.alloc_pool)
    i.atk_frec_add_a_face                    0x08004c80   Section        0  recog.o(i.atk_frec_add_a_face)
    i.atk_frec_binaryzation                  0x08004d98   Section        0  recog.o(i.atk_frec_binaryzation)
    i.atk_frec_delete_data                   0x08004e0c   Section        0  atk_frec.o(i.atk_frec_delete_data)
    i.atk_frec_destroy                       0x08004e58   Section        0  recog.o(i.atk_frec_destroy)
    i.atk_frec_free                          0x08004ea0   Section        0  atk_frec.o(i.atk_frec_free)
    i.atk_frec_initialization                0x08004eb0   Section        0  recog.o(i.atk_frec_initialization)
    i.atk_frec_load_data_model               0x08004f40   Section        0  recog.o(i.atk_frec_load_data_model)
    i.atk_frec_malloc                        0x08004f9c   Section        0  atk_frec.o(i.atk_frec_malloc)
    i.atk_frec_memset                        0x08004faa   Section        0  atk_frec.o(i.atk_frec_memset)
    i.atk_frec_normalization                 0x08004fc0   Section        0  recog.o(i.atk_frec_normalization)
    i.atk_frec_read_data                     0x08005064   Section        0  atk_frec.o(i.atk_frec_read_data)
    i.atk_frec_recognition_face              0x080050f8   Section        0  recog.o(i.atk_frec_recognition_face)
    i.atk_frec_save_data                     0x080051d8   Section        0  atk_frec.o(i.atk_frec_save_data)
    i.beep_init                              0x08005270   Section        0  beep.o(i.beep_init)
    i.bitext                                 0x080052ac   Section        0  tjpgd.o(i.bitext)
    bitext                                   0x080052ad   Thumb Code   138  tjpgd.o(i.bitext)
    i.block_idct                             0x08005336   Section        0  tjpgd.o(i.block_idct)
    block_idct                               0x08005337   Thumb Code   430  tjpgd.o(i.block_idct)
    i.bmp_encode                             0x080054e4   Section        0  bmp.o(i.bmp_encode)
    i.btim_timx_int_init                     0x080056d4   Section        0  btim.o(i.btim_timx_int_init)
    i.calcMoveDistMat                        0x0800571c   Section        0  recog.o(i.calcMoveDistMat)
    i.calcOffsetDist                         0x080057b4   Section        0  recog.o(i.calcOffsetDist)
    i.change_bitmap                          0x08005a70   Section        0  ff.o(i.change_bitmap)
    change_bitmap                            0x08005a71   Thumb Code   138  ff.o(i.change_bitmap)
    i.check_fs                               0x08005afc   Section        0  ff.o(i.check_fs)
    check_fs                                 0x08005afd   Thumb Code   236  ff.o(i.check_fs)
    i.clmt_clust                             0x08005c00   Section        0  ff.o(i.clmt_clust)
    clmt_clust                               0x08005c01   Thumb Code    98  ff.o(i.clmt_clust)
    i.close_door                             0x08005c62   Section        0  pwmdac.o(i.close_door)
    i.clst2sect                              0x08005c6c   Section        0  ff.o(i.clst2sect)
    clst2sect                                0x08005c6d   Thumb Code    26  ff.o(i.clst2sect)
    i.cmp_lfn                                0x08005c88   Section        0  ff.o(i.cmp_lfn)
    cmp_lfn                                  0x08005c89   Thumb Code   148  ff.o(i.cmp_lfn)
    i.create_chain                           0x08005d20   Section        0  ff.o(i.create_chain)
    create_chain                             0x08005d21   Thumb Code   460  ff.o(i.create_chain)
    i.create_huffman_tbl                     0x08005eec   Section        0  tjpgd.o(i.create_huffman_tbl)
    create_huffman_tbl                       0x08005eed   Thumb Code   448  tjpgd.o(i.create_huffman_tbl)
    i.create_name                            0x080060ac   Section        0  ff.o(i.create_name)
    create_name                              0x080060ad   Thumb Code   584  ff.o(i.create_name)
    i.create_xdir                            0x08006308   Section        0  ff.o(i.create_xdir)
    create_xdir                              0x08006309   Thumb Code   144  ff.o(i.create_xdir)
    i.cross                                  0x08006398   Section        0  main.o(i.cross)
    i.dbc_1st                                0x08006460   Section        0  ff.o(i.dbc_1st)
    dbc_1st                                  0x08006461   Thumb Code    46  ff.o(i.dbc_1st)
    i.dbc_2nd                                0x08006494   Section        0  ff.o(i.dbc_2nd)
    dbc_2nd                                  0x08006495   Thumb Code    66  ff.o(i.dbc_2nd)
    i.dcmi_dma_init                          0x080064dc   Section        0  dcmi.o(i.dcmi_dma_init)
    i.dcmi_init                              0x08006580   Section        0  dcmi.o(i.dcmi_init)
    i.dcmi_start                             0x080066e0   Section        0  dcmi.o(i.dcmi_start)
    i.dcmi_stop                              0x08006710   Section        0  dcmi.o(i.dcmi_stop)
    i.delay_init                             0x08006740   Section        0  delay.o(i.delay_init)
    i.delay_ms                               0x0800676c   Section        0  delay.o(i.delay_ms)
    i.delay_us                               0x08006780   Section        0  delay.o(i.delay_us)
    i.dir_alloc                              0x080067c8   Section        0  ff.o(i.dir_alloc)
    dir_alloc                                0x080067c9   Thumb Code   124  ff.o(i.dir_alloc)
    i.dir_clear                              0x08006844   Section        0  ff.o(i.dir_clear)
    dir_clear                                0x08006845   Thumb Code   194  ff.o(i.dir_clear)
    i.dir_find                               0x08006906   Section        0  ff.o(i.dir_find)
    dir_find                                 0x08006907   Thumb Code   424  ff.o(i.dir_find)
    i.dir_next                               0x08006aae   Section        0  ff.o(i.dir_next)
    dir_next                                 0x08006aaf   Thumb Code   224  ff.o(i.dir_next)
    i.dir_read                               0x08006b8e   Section        0  ff.o(i.dir_read)
    dir_read                                 0x08006b8f   Thumb Code   258  ff.o(i.dir_read)
    i.dir_register                           0x08006c90   Section        0  ff.o(i.dir_register)
    dir_register                             0x08006c91   Thumb Code   554  ff.o(i.dir_register)
    i.dir_remove                             0x08006eba   Section        0  ff.o(i.dir_remove)
    dir_remove                               0x08006ebb   Thumb Code   114  ff.o(i.dir_remove)
    i.dir_sdi                                0x08006f2c   Section        0  ff.o(i.dir_sdi)
    i.disk_initialize                        0x08006fd6   Section        0  diskio.o(i.disk_initialize)
    i.disk_ioctl                             0x08007004   Section        0  diskio.o(i.disk_ioctl)
    i.disk_read                              0x080070b4   Section        0  diskio.o(i.disk_read)
    i.disk_status                            0x08007132   Section        0  diskio.o(i.disk_status)
    i.disk_write                             0x08007138   Section        0  diskio.o(i.disk_write)
    i.error_say                              0x080071b8   Section        0  syn6288.o(i.error_say)
    i.exfuns_char_upper                      0x080071e4   Section        0  exfuns.o(i.exfuns_char_upper)
    i.exfuns_file_type                       0x08007200   Section        0  exfuns.o(i.exfuns_file_type)
    i.exfuns_init                            0x080072c0   Section        0  exfuns.o(i.exfuns_init)
    i.f_close                                0x08007304   Section        0  ff.o(i.f_close)
    i.f_lseek                                0x0800732a   Section        0  ff.o(i.f_lseek)
    i.f_mkdir                                0x08007798   Section        0  ff.o(i.f_mkdir)
    i.f_mount                                0x0800793c   Section        0  ff.o(i.f_mount)
    i.f_open                                 0x08007990   Section        0  ff.o(i.f_open)
    i.f_opendir                              0x08007ca2   Section        0  ff.o(i.f_opendir)
    i.f_read                                 0x08007d5a   Section        0  ff.o(i.f_read)
    i.f_readdir                              0x08007f82   Section        0  ff.o(i.f_readdir)
    i.f_sync                                 0x08007ff2   Section        0  ff.o(i.f_sync)
    i.f_unlink                               0x0800819a   Section        0  ff.o(i.f_unlink)
    i.f_write                                0x08008296   Section        0  ff.o(i.f_write)
    i.fabs                                   0x0800851a   Section        0  fabs.o(i.fabs)
    i.ff_memalloc                            0x08008532   Section        0  ffsystem.o(i.ff_memalloc)
    i.ff_memfree                             0x08008540   Section        0  ffsystem.o(i.ff_memfree)
    i.ff_oem2uni                             0x08008550   Section        0  myffunicode.o(i.ff_oem2uni)
    i.ff_uni2oem                             0x080085d8   Section        0  myffunicode.o(i.ff_uni2oem)
    i.ff_wtoupper                            0x0800865c   Section        0  myffunicode.o(i.ff_wtoupper)
    i.fill_first_frag                        0x0800870c   Section        0  ff.o(i.fill_first_frag)
    fill_first_frag                          0x0800870d   Thumb Code    54  ff.o(i.fill_first_frag)
    i.fill_last_frag                         0x08008742   Section        0  ff.o(i.fill_last_frag)
    fill_last_frag                           0x08008743   Thumb Code    68  ff.o(i.fill_last_frag)
    i.find_bitmap                            0x08008786   Section        0  ff.o(i.find_bitmap)
    find_bitmap                              0x08008787   Thumb Code   164  ff.o(i.find_bitmap)
    i.find_volume                            0x0800882a   Section        0  ff.o(i.find_volume)
    find_volume                              0x0800882b   Thumb Code   120  ff.o(i.find_volume)
    i.follow_path                            0x080088a2   Section        0  ff.o(i.follow_path)
    follow_path                              0x080088a3   Thumb Code   196  ff.o(i.follow_path)
    i.fonts_init                             0x08008968   Section        0  fonts.o(i.fonts_init)
    i.four1                                  0x080089a8   Section        0  matrix.o(i.four1)
    i.four2                                  0x08008cf8   Section        0  matrix.o(i.four2)
    i.fputc                                  0x08008e64   Section        0  usart.o(i.fputc)
    i.frec_get_image_data                    0x08008e80   Section        0  face_recognition.o(i.frec_get_image_data)
    i.free_matrix                            0x08008f1e   Section        0  matrix.o(i.free_matrix)
    i.free_vector                            0x08008f60   Section        0  matrix.o(i.free_vector)
    i.gen_numname                            0x08008f74   Section        0  ff.o(i.gen_numname)
    gen_numname                              0x08008f75   Thumb Code   206  ff.o(i.gen_numname)
    i.get_fat                                0x08009048   Section        0  ff.o(i.get_fat)
    get_fat                                  0x08009049   Thumb Code   404  ff.o(i.get_fat)
    i.get_fattime                            0x080091dc   Section        0  ffsystem.o(i.get_fattime)
    i.get_fileinfo                           0x080091e0   Section        0  ff.o(i.get_fileinfo)
    get_fileinfo                             0x080091e1   Thumb Code   634  ff.o(i.get_fileinfo)
    i.get_ldnumber                           0x0800945a   Section        0  ff.o(i.get_ldnumber)
    get_ldnumber                             0x0800945b   Thumb Code    78  ff.o(i.get_ldnumber)
    i.gif_check_head                         0x080094a8   Section        0  gif.o(i.gif_check_head)
    gif_check_head                           0x080094a9   Thumb Code    88  gif.o(i.gif_check_head)
    i.gif_clear2bkcolor                      0x08009500   Section        0  gif.o(i.gif_clear2bkcolor)
    gif_clear2bkcolor                        0x08009501   Thumb Code   496  gif.o(i.gif_clear2bkcolor)
    i.gif_decode                             0x080096f4   Section        0  gif.o(i.gif_decode)
    i.gif_dispimage                          0x08009820   Section        0  gif.o(i.gif_dispimage)
    gif_dispimage                            0x08009821   Thumb Code   524  gif.o(i.gif_dispimage)
    i.gif_drawimage                          0x08009a38   Section        0  gif.o(i.gif_drawimage)
    gif_drawimage                            0x08009a39   Thumb Code   344  gif.o(i.gif_drawimage)
    i.gif_getdatablock                       0x08009b90   Section        0  gif.o(i.gif_getdatablock)
    gif_getdatablock                         0x08009b91   Thumb Code   104  gif.o(i.gif_getdatablock)
    i.gif_getinfo                            0x08009bf8   Section        0  gif.o(i.gif_getinfo)
    i.gif_getnextbyte                        0x08009c3e   Section        0  gif.o(i.gif_getnextbyte)
    gif_getnextbyte                          0x08009c3f   Thumb Code   856  gif.o(i.gif_getnextbyte)
    i.gif_getnextcode                        0x08009f98   Section        0  gif.o(i.gif_getnextcode)
    gif_getnextcode                          0x08009f99   Thumb Code   452  gif.o(i.gif_getnextcode)
    i.gif_getrgb565                          0x0800a160   Section        0  gif.o(i.gif_getrgb565)
    gif_getrgb565                            0x0800a161   Thumb Code    28  gif.o(i.gif_getrgb565)
    i.gif_initlzw                            0x0800a17c   Section        0  gif.o(i.gif_initlzw)
    gif_initlzw                              0x0800a17d   Thumb Code   152  gif.o(i.gif_initlzw)
    i.gif_readcolortbl                       0x0800a214   Section        0  gif.o(i.gif_readcolortbl)
    gif_readcolortbl                         0x0800a215   Thumb Code    64  gif.o(i.gif_readcolortbl)
    i.gif_readextension                      0x0800a254   Section        0  gif.o(i.gif_readextension)
    gif_readextension                        0x0800a255   Thumb Code   160  gif.o(i.gif_readextension)
    i.gif_recovergctbl                       0x0800a2f4   Section        0  gif.o(i.gif_recovergctbl)
    gif_recovergctbl                         0x0800a2f5   Thumb Code    38  gif.o(i.gif_recovergctbl)
    i.gif_savegctbl                          0x0800a31a   Section        0  gif.o(i.gif_savegctbl)
    gif_savegctbl                            0x0800a31b   Thumb Code    38  gif.o(i.gif_savegctbl)
    i.huffext                                0x0800a340   Section        0  tjpgd.o(i.huffext)
    huffext                                  0x0800a341   Thumb Code   272  tjpgd.o(i.huffext)
    i.init_alloc_info                        0x0800a450   Section        0  ff.o(i.init_alloc_info)
    init_alloc_info                          0x0800a451   Thumb Code    50  ff.o(i.init_alloc_info)
    i.jd_decomp                              0x0800a482   Section        0  tjpgd.o(i.jd_decomp)
    i.jd_prepare                             0x0800a508   Section        0  tjpgd.o(i.jd_prepare)
    i.jpeg_data_process                      0x0800a7c4   Section        0  main.o(i.jpeg_data_process)
    i.jpeg_freeall                           0x0800a8a4   Section        0  tjpgd.o(i.jpeg_freeall)
    jpeg_freeall                             0x0800a8a5   Thumb Code    26  tjpgd.o(i.jpeg_freeall)
    i.jpeg_in_func                           0x0800a8c4   Section        0  tjpgd.o(i.jpeg_in_func)
    jpeg_in_func                             0x0800a8c5   Thumb Code    46  tjpgd.o(i.jpeg_in_func)
    i.jpeg_mallocall                         0x0800a8f4   Section        0  tjpgd.o(i.jpeg_mallocall)
    jpeg_mallocall                           0x0800a8f5   Thumb Code    46  tjpgd.o(i.jpeg_mallocall)
    i.jpeg_out_func_fill                     0x0800a928   Section        0  tjpgd.o(i.jpeg_out_func_fill)
    jpeg_out_func_fill                       0x0800a929   Thumb Code    50  tjpgd.o(i.jpeg_out_func_fill)
    i.jpeg_out_func_point                    0x0800a964   Section        0  tjpgd.o(i.jpeg_out_func_point)
    jpeg_out_func_point                      0x0800a965   Thumb Code   160  tjpgd.o(i.jpeg_out_func_point)
    i.jpg_decode                             0x0800aa0c   Section        0  tjpgd.o(i.jpg_decode)
    i.key_init                               0x0800aad0   Section        0  key.o(i.key_init)
    i.key_scan                               0x0800ab64   Section        0  key.o(i.key_scan)
    i.lcd_clear                              0x0800ac2c   Section        0  lcd.o(i.lcd_clear)
    i.lcd_color_fill                         0x0800ac60   Section        0  lcd.o(i.lcd_color_fill)
    i.lcd_display_dir                        0x0800acc0   Section        0  lcd.o(i.lcd_display_dir)
    i.lcd_draw_hline                         0x0800ae2c   Section        0  lcd.o(i.lcd_draw_hline)
    i.lcd_draw_point                         0x0800ae64   Section        0  lcd.o(i.lcd_draw_point)
    i.lcd_ex_ili9341_reginit                 0x0800ae84   Section        0  lcd.o(i.lcd_ex_ili9341_reginit)
    i.lcd_ex_ili9806_reginit                 0x0800b0b0   Section        0  lcd.o(i.lcd_ex_ili9806_reginit)
    i.lcd_ex_nt35310_reginit                 0x0800b3f0   Section        0  lcd.o(i.lcd_ex_nt35310_reginit)
    i.lcd_ex_nt35510_reginit                 0x0800c2e2   Section        0  lcd.o(i.lcd_ex_nt35510_reginit)
    i.lcd_ex_ssd1963_reginit                 0x0800d1de   Section        0  lcd.o(i.lcd_ex_ssd1963_reginit)
    i.lcd_ex_st7789_reginit                  0x0800d34c   Section        0  lcd.o(i.lcd_ex_st7789_reginit)
    i.lcd_ex_st7796_reginit                  0x0800d4f4   Section        0  lcd.o(i.lcd_ex_st7796_reginit)
    i.lcd_fill                               0x0800d6bc   Section        0  lcd.o(i.lcd_fill)
    i.lcd_init                               0x0800d710   Section        0  lcd.o(i.lcd_init)
    i.lcd_opt_delay                          0x0800dcf4   Section        0  lcd.o(i.lcd_opt_delay)
    lcd_opt_delay                            0x0800dcf5   Thumb Code    12  lcd.o(i.lcd_opt_delay)
    i.lcd_rd_data                            0x0800dd00   Section        0  lcd.o(i.lcd_rd_data)
    lcd_rd_data                              0x0800dd01   Thumb Code    20  lcd.o(i.lcd_rd_data)
    i.lcd_read_point                         0x0800dd18   Section        0  lcd.o(i.lcd_read_point)
    i.lcd_scan_dir                           0x0800ddb0   Section        0  lcd.o(i.lcd_scan_dir)
    i.lcd_set_cursor                         0x0800dfec   Section        0  lcd.o(i.lcd_set_cursor)
    i.lcd_show_char                          0x0800e10c   Section        0  lcd.o(i.lcd_show_char)
    i.lcd_show_string                        0x0800e24c   Section        0  lcd.o(i.lcd_show_string)
    i.lcd_ssd_backlight_set                  0x0800e2b8   Section        0  lcd.o(i.lcd_ssd_backlight_set)
    i.lcd_wr_data                            0x0800e318   Section        0  lcd.o(i.lcd_wr_data)
    i.lcd_wr_regno                           0x0800e330   Section        0  lcd.o(i.lcd_wr_regno)
    i.lcd_write_ram_prepare                  0x0800e348   Section        0  lcd.o(i.lcd_write_ram_prepare)
    i.lcd_write_reg                          0x0800e35c   Section        0  lcd.o(i.lcd_write_reg)
    i.ld_clust                               0x0800e370   Section        0  ff.o(i.ld_clust)
    ld_clust                                 0x0800e371   Thumb Code    38  ff.o(i.ld_clust)
    i.ld_dword                               0x0800e396   Section        0  ff.o(i.ld_dword)
    ld_dword                                 0x0800e397   Thumb Code    24  ff.o(i.ld_dword)
    i.ld_qword                               0x0800e3ae   Section        0  ff.o(i.ld_qword)
    ld_qword                                 0x0800e3af   Thumb Code    98  ff.o(i.ld_qword)
    i.ld_word                                0x0800e410   Section        0  ff.o(i.ld_word)
    ld_word                                  0x0800e411   Thumb Code    12  ff.o(i.ld_word)
    i.led_init                               0x0800e41c   Section        0  led.o(i.led_init)
    i.load_obj_xdir                          0x0800e480   Section        0  ff.o(i.load_obj_xdir)
    load_obj_xdir                            0x0800e481   Thumb Code    64  ff.o(i.load_obj_xdir)
    i.load_xdir                              0x0800e4c0   Section        0  ff.o(i.load_xdir)
    load_xdir                                0x0800e4c1   Thumb Code   270  ff.o(i.load_xdir)
    i.log                                    0x0800e5ce   Section        0  log.o(i.log)
    i.main                                   0x0800e5e0   Section        0  main.o(i.main)
    i.matrix                                 0x0800eddc   Section        0  matrix.o(i.matrix)
    i.mcu_load                               0x0800ee48   Section        0  tjpgd.o(i.mcu_load)
    mcu_load                                 0x0800ee49   Thumb Code   348  tjpgd.o(i.mcu_load)
    i.mcu_output                             0x0800efa8   Section        0  tjpgd.o(i.mcu_output)
    mcu_output                               0x0800efa9   Thumb Code   786  tjpgd.o(i.mcu_output)
    i.mf_free                                0x0800f2c0   Section        0  fattester.o(i.mf_free)
    i.mf_init                                0x0800f2e0   Section        0  fattester.o(i.mf_init)
    i.mf_scan_files                          0x0800f320   Section        0  fattester.o(i.mf_scan_files)
    i.mount_volume                           0x0800f384   Section        0  ff.o(i.mount_volume)
    mount_volume                             0x0800f385   Thumb Code  1128  ff.o(i.mount_volume)
    i.move_window                            0x0800f7f8   Section        0  ff.o(i.move_window)
    move_window                              0x0800f7f9   Thumb Code    52  ff.o(i.move_window)
    i.my_mem_free                            0x0800f82c   Section        0  malloc.o(i.my_mem_free)
    my_mem_free                              0x0800f82d   Thumb Code    96  malloc.o(i.my_mem_free)
    i.my_mem_init                            0x0800f898   Section        0  malloc.o(i.my_mem_init)
    i.my_mem_malloc                          0x0800f8c8   Section        0  malloc.o(i.my_mem_malloc)
    my_mem_malloc                            0x0800f8c9   Thumb Code   156  malloc.o(i.my_mem_malloc)
    i.my_mem_perused                         0x0800f970   Section        0  malloc.o(i.my_mem_perused)
    i.my_mem_set                             0x0800f9b0   Section        0  malloc.o(i.my_mem_set)
    i.myfree                                 0x0800f9c4   Section        0  malloc.o(i.myfree)
    i.mymalloc                               0x0800f9e8   Section        0  malloc.o(i.mymalloc)
    i.norflash_erase_sector                  0x0800fa10   Section        0  norflash.o(i.norflash_erase_sector)
    i.norflash_init                          0x0800fa4c   Section        0  norflash.o(i.norflash_init)
    i.norflash_read                          0x0800fae4   Section        0  norflash.o(i.norflash_read)
    i.norflash_read_id                       0x0800fb2c   Section        0  norflash.o(i.norflash_read_id)
    i.norflash_read_sr                       0x0800fb74   Section        0  norflash.o(i.norflash_read_sr)
    i.norflash_send_address                  0x0800fbc8   Section        0  norflash.o(i.norflash_send_address)
    norflash_send_address                    0x0800fbc9   Thumb Code    46  norflash.o(i.norflash_send_address)
    i.norflash_wait_busy                     0x0800fbfc   Section        0  norflash.o(i.norflash_wait_busy)
    norflash_wait_busy                       0x0800fbfd   Thumb Code    20  norflash.o(i.norflash_wait_busy)
    i.norflash_write                         0x0800fc10   Section        0  norflash.o(i.norflash_write)
    i.norflash_write_enable                  0x0800fcc8   Section        0  norflash.o(i.norflash_write_enable)
    i.norflash_write_nocheck                 0x0800fcec   Section        0  norflash.o(i.norflash_write_nocheck)
    norflash_write_nocheck                   0x0800fced   Thumb Code    70  norflash.o(i.norflash_write_nocheck)
    i.norflash_write_page                    0x0800fd34   Section        0  norflash.o(i.norflash_write_page)
    norflash_write_page                      0x0800fd35   Thumb Code    74  norflash.o(i.norflash_write_page)
    i.norflash_write_sr                      0x0800fd84   Section        0  norflash.o(i.norflash_write_sr)
    i.open_door                              0x0800fdd4   Section        0  pwmdac.o(i.open_door)
    i.open_say                               0x0800fdf4   Section        0  syn6288.o(i.open_say)
    i.ov2640_init                            0x0800fe24   Section        0  ov2640.o(i.ov2640_init)
    i.ov2640_outsize_set                     0x0800ff5c   Section        0  ov2640.o(i.ov2640_outsize_set)
    i.ov2640_read_reg                        0x0800ffe4   Section        0  ov2640.o(i.ov2640_read_reg)
    i.ov2640_rgb565_mode                     0x08010034   Section        0  ov2640.o(i.ov2640_rgb565_mode)
    i.ov2640_write_reg                       0x0801005c   Section        0  ov2640.o(i.ov2640_write_reg)
    i.pick_lfn                               0x080100a8   Section        0  ff.o(i.pick_lfn)
    pick_lfn                                 0x080100a9   Thumb Code   136  ff.o(i.pick_lfn)
    i.piclib_ai_draw_init                    0x08010134   Section        0  piclib.o(i.piclib_ai_draw_init)
    i.piclib_ai_load_picfile                 0x08010214   Section        0  piclib.o(i.piclib_ai_load_picfile)
    i.piclib_fill_color                      0x080102e4   Section        0  piclib.o(i.piclib_fill_color)
    piclib_fill_color                        0x080102e5   Thumb Code    44  piclib.o(i.piclib_fill_color)
    i.piclib_init                            0x08010310   Section        0  piclib.o(i.piclib_init)
    i.piclib_is_element_ok                   0x0801036c   Section        0  piclib.o(i.piclib_is_element_ok)
    i.piclib_mem_free                        0x08010394   Section        0  piclib.o(i.piclib_mem_free)
    i.piclib_mem_malloc                      0x080103a2   Section        0  piclib.o(i.piclib_mem_malloc)
    i.printMatrixCreate                      0x080103b0   Section        0  gabor.o(i.printMatrixCreate)
    i.put_fat                                0x080103b2   Section        0  ff.o(i.put_fat)
    put_fat                                  0x080103b3   Thumb Code   324  ff.o(i.put_fat)
    i.put_lfn                                0x080104f8   Section        0  ff.o(i.put_lfn)
    put_lfn                                  0x080104f9   Thumb Code   124  ff.o(i.put_lfn)
    i.put_utf                                0x08010578   Section        0  ff.o(i.put_utf)
    put_utf                                  0x08010579   Thumb Code    66  ff.o(i.put_utf)
    i.pwmdac_init                            0x080105bc   Section        0  pwmdac.o(i.pwmdac_init)
    i.read_addr                              0x080106c0   Section        0  usmart.o(i.read_addr)
    i.remove_chain                           0x080106c6   Section        0  ff.o(i.remove_chain)
    remove_chain                             0x080106c7   Thumb Code   330  ff.o(i.remove_chain)
    i.restart                                0x08010810   Section        0  tjpgd.o(i.restart)
    restart                                  0x08010811   Thumb Code   130  tjpgd.o(i.restart)
    i.sccb_delay                             0x08010892   Section        0  sccb.o(i.sccb_delay)
    sccb_delay                               0x08010893   Thumb Code    10  sccb.o(i.sccb_delay)
    i.sccb_init                              0x0801089c   Section        0  sccb.o(i.sccb_init)
    i.sccb_nack                              0x080108f0   Section        0  sccb.o(i.sccb_nack)
    i.sccb_read_byte                         0x08010924   Section        0  sccb.o(i.sccb_read_byte)
    i.sccb_send_byte                         0x0801096c   Section        0  sccb.o(i.sccb_send_byte)
    i.sccb_start                             0x080109e4   Section        0  sccb.o(i.sccb_start)
    i.sccb_stop                              0x08010a20   Section        0  sccb.o(i.sccb_stop)
    i.sd_init                                0x08010a54   Section        0  sdio_sdcard.o(i.sd_init)
    i.sd_read_disk                           0x08010c28   Section        0  sdio_sdcard.o(i.sd_read_disk)
    i.sd_write_disk                          0x08010c68   Section        0  sdio_sdcard.o(i.sd_write_disk)
    i.sdmmc_clock_set                        0x08010ca8   Section        0  sdio_sdcard.o(i.sdmmc_clock_set)
    sdmmc_clock_set                          0x08010ca9   Thumb Code    16  sdio_sdcard.o(i.sdmmc_clock_set)
    i.sdmmc_cmd_error                        0x08010cbc   Section        0  sdio_sdcard.o(i.sdmmc_cmd_error)
    sdmmc_cmd_error                          0x08010cbd   Thumb Code    48  sdio_sdcard.o(i.sdmmc_cmd_error)
    i.sdmmc_cmd_resp1_error                  0x08010cf4   Section        0  sdio_sdcard.o(i.sdmmc_cmd_resp1_error)
    sdmmc_cmd_resp1_error                    0x08010cf5   Thumb Code   116  sdio_sdcard.o(i.sdmmc_cmd_resp1_error)
    i.sdmmc_cmd_resp2_error                  0x08010d70   Section        0  sdio_sdcard.o(i.sdmmc_cmd_resp2_error)
    sdmmc_cmd_resp2_error                    0x08010d71   Thumb Code    96  sdio_sdcard.o(i.sdmmc_cmd_resp2_error)
    i.sdmmc_cmd_resp3_error                  0x08010dd8   Section        0  sdio_sdcard.o(i.sdmmc_cmd_resp3_error)
    sdmmc_cmd_resp3_error                    0x08010dd9   Thumb Code    68  sdio_sdcard.o(i.sdmmc_cmd_resp3_error)
    i.sdmmc_cmd_resp6_error                  0x08010e24   Section        0  sdio_sdcard.o(i.sdmmc_cmd_resp6_error)
    sdmmc_cmd_resp6_error                    0x08010e25   Thumb Code   166  sdio_sdcard.o(i.sdmmc_cmd_resp6_error)
    i.sdmmc_cmd_resp7_error                  0x08010ed4   Section        0  sdio_sdcard.o(i.sdmmc_cmd_resp7_error)
    sdmmc_cmd_resp7_error                    0x08010ed5   Thumb Code    88  sdio_sdcard.o(i.sdmmc_cmd_resp7_error)
    i.sdmmc_find_scr                         0x08010f30   Section        0  sdio_sdcard.o(i.sdmmc_find_scr)
    sdmmc_find_scr                           0x08010f31   Thumb Code   310  sdio_sdcard.o(i.sdmmc_find_scr)
    i.sdmmc_get_card_info                    0x08011070   Section        0  sdio_sdcard.o(i.sdmmc_get_card_info)
    sdmmc_get_card_info                      0x08011071   Thumb Code   768  sdio_sdcard.o(i.sdmmc_get_card_info)
    i.sdmmc_initialize_cards                 0x08011380   Section        0  sdio_sdcard.o(i.sdmmc_initialize_cards)
    sdmmc_initialize_cards                   0x08011381   Thumb Code   256  sdio_sdcard.o(i.sdmmc_initialize_cards)
    i.sdmmc_is_card_programming              0x08011494   Section        0  sdio_sdcard.o(i.sdmmc_is_card_programming)
    sdmmc_is_card_programming                0x08011495   Thumb Code   146  sdio_sdcard.o(i.sdmmc_is_card_programming)
    i.sdmmc_power_on                         0x08011534   Section        0  sdio_sdcard.o(i.sdmmc_power_on)
    sdmmc_power_on                           0x08011535   Thumb Code   352  sdio_sdcard.o(i.sdmmc_power_on)
    i.sdmmc_read_blocks                      0x080116a4   Section        0  sdio_sdcard.o(i.sdmmc_read_blocks)
    sdmmc_read_blocks                        0x080116a5   Thumb Code   470  sdio_sdcard.o(i.sdmmc_read_blocks)
    i.sdmmc_select_deselect                  0x080118a8   Section        0  sdio_sdcard.o(i.sdmmc_select_deselect)
    sdmmc_select_deselect                    0x080118a9   Thumb Code    22  sdio_sdcard.o(i.sdmmc_select_deselect)
    i.sdmmc_send_cmd                         0x080118c0   Section        0  sdio_sdcard.o(i.sdmmc_send_cmd)
    sdmmc_send_cmd                           0x080118c1   Thumb Code    34  sdio_sdcard.o(i.sdmmc_send_cmd)
    i.sdmmc_send_data_cfg                    0x080118e8   Section        0  sdio_sdcard.o(i.sdmmc_send_data_cfg)
    sdmmc_send_data_cfg                      0x080118e9   Thumb Code    50  sdio_sdcard.o(i.sdmmc_send_data_cfg)
    i.sdmmc_wide_bus_enable                  0x08011920   Section        0  sdio_sdcard.o(i.sdmmc_wide_bus_enable)
    sdmmc_wide_bus_enable                    0x08011921   Thumb Code   124  sdio_sdcard.o(i.sdmmc_wide_bus_enable)
    i.sdmmc_wide_bus_operation               0x080119a4   Section        0  sdio_sdcard.o(i.sdmmc_wide_bus_operation)
    sdmmc_wide_bus_operation                 0x080119a5   Thumb Code    86  sdio_sdcard.o(i.sdmmc_wide_bus_operation)
    i.sdmmc_write_blocks                     0x08011a04   Section        0  sdio_sdcard.o(i.sdmmc_write_blocks)
    sdmmc_write_blocks                       0x08011a05   Thumb Code   718  sdio_sdcard.o(i.sdmmc_write_blocks)
    i.spi1_init                              0x08011ce4   Section        0  spi.o(i.spi1_init)
    i.spi1_read_write_byte                   0x08011dc4   Section        0  spi.o(i.spi1_read_write_byte)
    i.spi1_set_speed                         0x08011df4   Section        0  spi.o(i.spi1_set_speed)
    i.sqrt                                   0x08011e28   Section        0  sqrt.o(i.sqrt)
    i.sram_init                              0x08011e98   Section        0  sram.o(i.sram_init)
    i.st_clust                               0x0801204c   Section        0  ff.o(i.st_clust)
    st_clust                                 0x0801204d   Thumb Code    36  ff.o(i.st_clust)
    i.st_dword                               0x08012070   Section        0  ff.o(i.st_dword)
    st_dword                                 0x08012071   Thumb Code    24  ff.o(i.st_dword)
    i.st_qword                               0x08012088   Section        0  ff.o(i.st_qword)
    st_qword                                 0x08012089   Thumb Code    92  ff.o(i.st_qword)
    i.st_word                                0x080120e4   Section        0  ff.o(i.st_word)
    st_word                                  0x080120e5   Thumb Code    12  ff.o(i.st_word)
    i.stdbmp_decode                          0x080120f0   Section        0  bmp.o(i.stdbmp_decode)
    i.store_xdir                             0x080123cc   Section        0  ff.o(i.store_xdir)
    store_xdir                               0x080123cd   Thumb Code   114  ff.o(i.store_xdir)
    i.sum_sfn                                0x0801243e   Section        0  ff.o(i.sum_sfn)
    sum_sfn                                  0x0801243f   Thumb Code    32  ff.o(i.sum_sfn)
    i.sw_ov2640_mode                         0x08012460   Section        0  main.o(i.sw_ov2640_mode)
    i.sw_sdcard_mode                         0x0801249c   Section        0  main.o(i.sw_sdcard_mode)
    i.sync_fs                                0x080124d8   Section        0  ff.o(i.sync_fs)
    sync_fs                                  0x080124d9   Thumb Code   132  ff.o(i.sync_fs)
    i.sync_window                            0x08012564   Section        0  ff.o(i.sync_window)
    sync_window                              0x08012565   Thumb Code    74  ff.o(i.sync_window)
    i.sys_clock_set                          0x080125b0   Section        0  sys.o(i.sys_clock_set)
    i.sys_gpio_af_set                        0x0801273c   Section        0  sys.o(i.sys_gpio_af_set)
    i.sys_gpio_pin_get                       0x080127a4   Section        0  sys.o(i.sys_gpio_pin_get)
    i.sys_gpio_pin_set                       0x080127b4   Section        0  sys.o(i.sys_gpio_pin_set)
    i.sys_gpio_set                           0x080127cc   Section        0  sys.o(i.sys_gpio_set)
    i.sys_intx_disable                       0x080128aa   Section        0  sys.o(i.sys_intx_disable)
    i.sys_intx_enable                        0x080128ae   Section        0  sys.o(i.sys_intx_enable)
    i.sys_nvic_init                          0x080128b4   Section        0  sys.o(i.sys_nvic_init)
    i.sys_nvic_priority_group_config         0x0801292c   Section        0  sys.o(i.sys_nvic_priority_group_config)
    sys_nvic_priority_group_config           0x0801292d   Thumb Code    32  sys.o(i.sys_nvic_priority_group_config)
    i.sys_nvic_set_vector_table              0x08012954   Section        0  sys.o(i.sys_nvic_set_vector_table)
    i.sys_stm32_clock_init                   0x08012964   Section        0  sys.o(i.sys_stm32_clock_init)
    i.tchar2uni                              0x080129a4   Section        0  ff.o(i.tchar2uni)
    tchar2uni                                0x080129a5   Thumb Code    76  ff.o(i.tchar2uni)
    i.text_get_hz_mat                        0x080129f0   Section        0  text.o(i.text_get_hz_mat)
    text_get_hz_mat                          0x080129f1   Thumb Code   220  text.o(i.text_get_hz_mat)
    i.text_show_font                         0x08012ad0   Section        0  text.o(i.text_show_font)
    i.text_show_string                       0x08012bb0   Section        0  text.o(i.text_show_string)
    i.usart2_init                            0x08012c78   Section        0  usart2.o(i.usart2_init)
    i.usart_init                             0x08012d34   Section        0  usart.o(i.usart_init)
    i.usmart_cmd_rec                         0x08012e14   Section        0  usmart.o(i.usmart_cmd_rec)
    i.usmart_exe                             0x08012ec4   Section        0  usmart.o(i.usmart_exe)
    i.usmart_get_aparm                       0x08013198   Section        0  usmart_str.o(i.usmart_get_aparm)
    i.usmart_get_cmdname                     0x0801326c   Section        0  usmart_str.o(i.usmart_get_cmdname)
    i.usmart_get_fname                       0x080132a4   Section        0  usmart_str.o(i.usmart_get_fname)
    i.usmart_get_fparam                      0x08013464   Section        0  usmart_str.o(i.usmart_get_fparam)
    i.usmart_get_input_string                0x08013570   Section        0  usmart_port.o(i.usmart_get_input_string)
    i.usmart_get_parmpos                     0x08013598   Section        0  usmart_str.o(i.usmart_get_parmpos)
    i.usmart_init                            0x080135b8   Section        0  usmart.o(i.usmart_init)
    i.usmart_pow                             0x080135d0   Section        0  usmart_str.o(i.usmart_pow)
    i.usmart_scan                            0x080135e8   Section        0  usmart.o(i.usmart_scan)
    i.usmart_search_nextc                    0x08013690   Section        0  usmart_str.o(i.usmart_search_nextc)
    i.usmart_str2num                         0x080136a6   Section        0  usmart_str.o(i.usmart_str2num)
    i.usmart_strcmp                          0x080137ac   Section        0  usmart_str.o(i.usmart_strcmp)
    i.usmart_strcopy                         0x080137ce   Section        0  usmart_str.o(i.usmart_strcopy)
    i.usmart_strlen                          0x080137e4   Section        0  usmart_str.o(i.usmart_strlen)
    i.usmart_sys_cmd_exe                     0x080137fc   Section        0  usmart.o(i.usmart_sys_cmd_exe)
    i.usmart_timx_get_time                   0x08013ef0   Section        0  usmart_port.o(i.usmart_timx_get_time)
    i.usmart_timx_init                       0x08013f30   Section        0  usmart_port.o(i.usmart_timx_init)
    i.usmart_timx_reset_time                 0x08013f98   Section        0  usmart_port.o(i.usmart_timx_reset_time)
    i.validate                               0x08013fc8   Section        0  ff.o(i.validate)
    validate                                 0x08013fc9   Thumb Code    60  ff.o(i.validate)
    i.vector                                 0x08014004   Section        0  matrix.o(i.vector)
    i.write_addr                             0x0801403a   Section        0  usmart.o(i.write_addr)
    i.xdir_sum                               0x0801403e   Section        0  ff.o(i.xdir_sum)
    xdir_sum                                 0x0801403f   Thumb Code    58  ff.o(i.xdir_sum)
    i.xname_sum                              0x08014078   Section        0  ff.o(i.xname_sum)
    xname_sum                                0x08014079   Thumb Code    76  ff.o(i.xname_sum)
    x$fpl$basic                              0x080140c4   Section       24  basic.o(x$fpl$basic)
    $v0                                      0x080140c4   Number         0  basic.o(x$fpl$basic)
    x$fpl$d2f                                0x080140dc   Section       98  d2f.o(x$fpl$d2f)
    $v0                                      0x080140dc   Number         0  d2f.o(x$fpl$d2f)
    x$fpl$dadd                               0x08014140   Section      336  daddsub_clz.o(x$fpl$dadd)
    $v0                                      0x08014140   Number         0  daddsub_clz.o(x$fpl$dadd)
    _dadd1                                   0x08014151   Thumb Code     0  daddsub_clz.o(x$fpl$dadd)
    x$fpl$dcheck1                            0x08014290   Section       16  dcheck1.o(x$fpl$dcheck1)
    $v0                                      0x08014290   Number         0  dcheck1.o(x$fpl$dcheck1)
    x$fpl$dcmpinf                            0x080142a0   Section       24  dcmpi.o(x$fpl$dcmpinf)
    $v0                                      0x080142a0   Number         0  dcmpi.o(x$fpl$dcmpinf)
    x$fpl$ddiv                               0x080142b8   Section      688  ddiv.o(x$fpl$ddiv)
    $v0                                      0x080142b8   Number         0  ddiv.o(x$fpl$ddiv)
    ddiv_entry                               0x080142bf   Thumb Code     0  ddiv.o(x$fpl$ddiv)
    x$fpl$deqf                               0x08014568   Section      120  deqf.o(x$fpl$deqf)
    $v0                                      0x08014568   Number         0  deqf.o(x$fpl$deqf)
    x$fpl$dfix                               0x080145e0   Section       94  dfix.o(x$fpl$dfix)
    $v0                                      0x080145e0   Number         0  dfix.o(x$fpl$dfix)
    x$fpl$dfixu                              0x08014640   Section       90  dfixu.o(x$fpl$dfixu)
    $v0                                      0x08014640   Number         0  dfixu.o(x$fpl$dfixu)
    x$fpl$dflt                               0x0801469a   Section       46  dflt_clz.o(x$fpl$dflt)
    $v0                                      0x0801469a   Number         0  dflt_clz.o(x$fpl$dflt)
    x$fpl$dfltu                              0x080146c8   Section       38  dflt_clz.o(x$fpl$dfltu)
    $v0                                      0x080146c8   Number         0  dflt_clz.o(x$fpl$dfltu)
    x$fpl$dleqf                              0x080146f0   Section      120  dleqf.o(x$fpl$dleqf)
    $v0                                      0x080146f0   Number         0  dleqf.o(x$fpl$dleqf)
    x$fpl$dmul                               0x08014768   Section      340  dmul.o(x$fpl$dmul)
    $v0                                      0x08014768   Number         0  dmul.o(x$fpl$dmul)
    x$fpl$dnaninf                            0x080148bc   Section      156  dnaninf.o(x$fpl$dnaninf)
    $v0                                      0x080148bc   Number         0  dnaninf.o(x$fpl$dnaninf)
    x$fpl$dretinf                            0x08014958   Section       12  dretinf.o(x$fpl$dretinf)
    $v0                                      0x08014958   Number         0  dretinf.o(x$fpl$dretinf)
    x$fpl$drleqf                             0x08014964   Section      108  drleqf.o(x$fpl$drleqf)
    $v0                                      0x08014964   Number         0  drleqf.o(x$fpl$drleqf)
    x$fpl$drsb                               0x080149d0   Section       22  daddsub_clz.o(x$fpl$drsb)
    $v0                                      0x080149d0   Number         0  daddsub_clz.o(x$fpl$drsb)
    x$fpl$dsqrt                              0x080149e8   Section      408  dsqrt_umaal.o(x$fpl$dsqrt)
    $v0                                      0x080149e8   Number         0  dsqrt_umaal.o(x$fpl$dsqrt)
    x$fpl$dsub                               0x08014b80   Section      468  daddsub_clz.o(x$fpl$dsub)
    $v0                                      0x08014b80   Number         0  daddsub_clz.o(x$fpl$dsub)
    _dsub1                                   0x08014b91   Thumb Code     0  daddsub_clz.o(x$fpl$dsub)
    x$fpl$f2d                                0x08014d54   Section       86  f2d.o(x$fpl$f2d)
    $v0                                      0x08014d54   Number         0  f2d.o(x$fpl$f2d)
    x$fpl$fnaninf                            0x08014daa   Section      140  fnaninf.o(x$fpl$fnaninf)
    $v0                                      0x08014daa   Number         0  fnaninf.o(x$fpl$fnaninf)
    x$fpl$fpinit                             0x08014e36   Section       10  fpinit.o(x$fpl$fpinit)
    $v0                                      0x08014e36   Number         0  fpinit.o(x$fpl$fpinit)
    x$fpl$fretinf                            0x08014e40   Section       10  fretinf.o(x$fpl$fretinf)
    $v0                                      0x08014e40   Number         0  fretinf.o(x$fpl$fretinf)
    x$fpl$retnan                             0x08014e4a   Section      100  retnan.o(x$fpl$retnan)
    $v0                                      0x08014e4a   Number         0  retnan.o(x$fpl$retnan)
    x$fpl$scalbn                             0x08014eae   Section       92  scalbn.o(x$fpl$scalbn)
    $v0                                      0x08014eae   Number         0  scalbn.o(x$fpl$scalbn)
    x$fpl$trapveneer                         0x08014f0a   Section       48  trapv.o(x$fpl$trapveneer)
    $v0                                      0x08014f0a   Number         0  trapv.o(x$fpl$trapveneer)
    .constdata                               0x08014f3a   Section    12160  lcd.o(.constdata)
    x$fpl$usenofp                            0x08014f3a   Section        0  usenofp.o(x$fpl$usenofp)
    .constdata                               0x08017eba   Section      808  ov2640.o(.constdata)
    OV2640_AUTOEXPOSURE_LEVEL                0x080181ba   Data          40  ov2640.o(.constdata)
    .constdata                               0x080181e4   Section       36  malloc.o(.constdata)
    .constdata                               0x08018208   Section       88  ff.o(.constdata)
    LfnOfs                                   0x08018208   Data          13  ff.o(.constdata)
    DbcTbl                                   0x08018215   Data          10  ff.o(.constdata)
    badchr                                   0x0801821f   Data          18  ff.o(.constdata)
    cst                                      0x08018232   Data          14  ff.o(.constdata)
    cst32                                    0x08018240   Data          14  ff.o(.constdata)
    defopt                                   0x08018250   Data          16  ff.o(.constdata)
    .constdata                               0x08018260   Section      196  exfuns.o(.constdata)
    .constdata                               0x08018324   Section      686  myffunicode.o(.constdata)
    cvt1                                     0x08018324   Data         498  myffunicode.o(.constdata)
    cvt2                                     0x08018516   Data         188  myffunicode.o(.constdata)
    .constdata                               0x080185d2   Section       40  gif.o(.constdata)
    .constdata                               0x080185fa   Section     1216  tjpgd.o(.constdata)
    Zig                                      0x080185fa   Data          64  tjpgd.o(.constdata)
    Ipsf                                     0x0801863a   Data         128  tjpgd.o(.constdata)
    Clip8                                    0x080186ba   Data        1024  tjpgd.o(.constdata)
    .constdata                               0x08018aba   Section       40  _printf_hex_int.o(.constdata)
    uc_hextab                                0x08018aba   Data          20  _printf_hex_int.o(.constdata)
    lc_hextab                                0x08018ace   Data          20  _printf_hex_int.o(.constdata)
    .constdata                               0x08018ae2   Section       17  __printf_flags_ss_wp.o(.constdata)
    maptable                                 0x08018ae2   Data          17  __printf_flags_ss_wp.o(.constdata)
    .constdata                               0x08018af8   Section       88  exp.o(.constdata)
    halF                                     0x08018af8   Data          16  exp.o(.constdata)
    ln2HI                                    0x08018b08   Data          16  exp.o(.constdata)
    ln2LO                                    0x08018b18   Data          16  exp.o(.constdata)
    P                                        0x08018b28   Data          40  exp.o(.constdata)
    .constdata                               0x08018b50   Section       56  log.o(.constdata)
    Lg2                                      0x08018b50   Data          24  log.o(.constdata)
    Lg                                       0x08018b68   Data          32  log.o(.constdata)
    .constdata                               0x08018b88   Section      136  pow.o(.constdata)
    bp                                       0x08018b88   Data          16  pow.o(.constdata)
    dp_h                                     0x08018b98   Data          16  pow.o(.constdata)
    dp_l                                     0x08018ba8   Data          16  pow.o(.constdata)
    L                                        0x08018bb8   Data          48  pow.o(.constdata)
    P                                        0x08018be8   Data          40  pow.o(.constdata)
    .constdata                               0x08018c10   Section       48  cos_i.o(.constdata)
    C                                        0x08018c10   Data          48  cos_i.o(.constdata)
    .constdata                               0x08018c40   Section        8  qnan.o(.constdata)
    .constdata                               0x08018c48   Section      200  rred.o(.constdata)
    pio2s                                    0x08018c48   Data          48  rred.o(.constdata)
    twooverpi                                0x08018c78   Data         152  rred.o(.constdata)
    .constdata                               0x08018d10   Section       40  sin_i.o(.constdata)
    S                                        0x08018d10   Data          40  sin_i.o(.constdata)
    .constdata                               0x08018d38   Section       96  tan_i.o(.constdata)
    Todd                                     0x08018d38   Data          48  tan_i.o(.constdata)
    Teven                                    0x08018d68   Data          48  tan_i.o(.constdata)
    .conststring                             0x08018d98   Section       40  usmart.o(.conststring)
    .conststring                             0x08018dc0   Section      542  usmart_config.o(.conststring)
    .conststring                             0x08018fe0   Section       84  exfuns.o(.conststring)
    .ARM.__AT_0x10000000                     0x10000000   Section    61440  malloc.o(.ARM.__AT_0x10000000)
    mem2base                                 0x10000000   Data       61440  malloc.o(.ARM.__AT_0x10000000)
    .ARM.__AT_0x1000F000                     0x1000f000   Section     3840  malloc.o(.ARM.__AT_0x1000F000)
    mem2mapbase                              0x1000f000   Data        3840  malloc.o(.ARM.__AT_0x1000F000)
    .data                                    0x20000000   Section       24  main.o(.data)
    .data                                    0x20000018   Section        4  delay.o(.data)
    g_fac_us                                 0x20000018   Data           4  delay.o(.data)
    .data                                    0x2000001c   Section        6  usart.o(.data)
    .data                                    0x20000024   Section        8  lcd.o(.data)
    .data                                    0x2000002c   Section        1  key.o(.data)
    key_up                                   0x2000002c   Data           1  key.o(.data)
    .data                                    0x20000030   Section        8  sdio_sdcard.o(.data)
    CardType                                 0x20000030   Data           1  sdio_sdcard.o(.data)
    RCA                                      0x20000034   Data           4  sdio_sdcard.o(.data)
    .data                                    0x20000038   Section        2  norflash.o(.data)
    .data                                    0x2000003c   Section        8  dcmi.o(.data)
    .data                                    0x20000044   Section       28  usmart.o(.data)
    .data                                    0x20000060   Section      324  usmart_config.o(.data)
    .data                                    0x200001a4   Section       36  malloc.o(.data)
    .data                                    0x200001c8   Section       10  ff.o(.data)
    FatFs                                    0x200001c8   Data           8  ff.o(.data)
    Fsid                                     0x200001d0   Data           2  ff.o(.data)
    .data                                    0x200001d4   Section        8  exfuns.o(.data)
    .data                                    0x200001dc   Section        1  gif.o(.data)
    .data                                    0x200001e0   Section       12  tjpgd.o(.data)
    .data                                    0x200001ec   Section        4  recog.o(.data)
    .data                                    0x200001f0   Section       64  gabor.o(.data)
    .data                                    0x20000230   Section       28  matrix.o(.data)
    .bss                                     0x2000024c   Section      200  usart.o(.bss)
    .bss                                     0x20000314   Section       14  lcd.o(.bss)
    .bss                                     0x20000328   Section      120  sdio_sdcard.o(.bss)
    CSD_Tab                                  0x20000328   Data          16  sdio_sdcard.o(.bss)
    CID_Tab                                  0x20000338   Data          16  sdio_sdcard.o(.bss)
    .bss                                     0x200003a0   Section     4096  norflash.o(.bss)
    .bss                                     0x200013c0   Section    108800  malloc.o(.bss)
    mem1base                                 0x200013c0   Data       102400  malloc.o(.bss)
    mem1mapbase                              0x2001a3c0   Data        6400  malloc.o(.bss)
    .bss                                     0x2001bcc0   Section      384  fattester.o(.bss)
    .bss                                     0x2001be40   Section       33  fonts.o(.bss)
    .bss                                     0x2001be64   Section       60  piclib.o(.bss)
    .bss                                     0x2001bea0   Section       16  recog.o(.bss)
    .bss                                     0x2001beb0   Section       96  libspace.o(.bss)
    HEAP                                     0x2001bf10   Section        0  startup_stm32f407xx.o(HEAP)
    STACK                                    0x2001bf10   Section     1024  startup_stm32f407xx.o(STACK)
    Heap_Mem                                 0x2001bf10   Data           0  startup_stm32f407xx.o(HEAP)
    Stack_Mem                                0x2001bf10   Data        1024  startup_stm32f407xx.o(STACK)
    __initial_sp                             0x2001c310   Data           0  startup_stm32f407xx.o(STACK)
    .ARM.__AT_0x68000000                     0x68000000   Section    986112  malloc.o(.ARM.__AT_0x68000000)
    mem3base                                 0x68000000   Data       986112  malloc.o(.ARM.__AT_0x68000000)
    .ARM.__AT_0x680F0C00                     0x680f0c00   Section    61632  malloc.o(.ARM.__AT_0x680F0C00)
    mem3mapbase                              0x680f0c00   Data       61632  malloc.o(.ARM.__AT_0x680F0C00)

    Global Symbols

    Symbol Name                              Value     Ov Type        Size  Object(Section)

    BuildAttributes$$THM_ISAv4$E$P$D$K$B$S$7EM$VFPi3$EXTD16$VFPS$VFMA$PE$A:L22UL41UL21$X:L11$S22US41US21$IEEE1$IW$USESV6$~STKCKD$USESV7$~SHL$OTIME$ROPI$IEEEX$EBA8$UX$STANDARDLIB$REQ8$PRES8$EABIv2 0x00000000   Number         0  anon$$obj.o ABSOLUTE
    __ARM_use_no_argv                        0x00000000   Number         0  main.o ABSOLUTE
    _printf_flags                            0x00000000   Number         0  printf_stubs.o ABSOLUTE
    _printf_return_value                     0x00000000   Number         0  printf_stubs.o ABSOLUTE
    _printf_sizespec                         0x00000000   Number         0  printf_stubs.o ABSOLUTE
    _printf_widthprec                        0x00000000   Number         0  printf_stubs.o ABSOLUTE
    __ARM_exceptions_init                     - Undefined Weak Reference
    __alloca_initialize                       - Undefined Weak Reference
    __arm_fini_                               - Undefined Weak Reference
    __arm_preinit_                            - Undefined Weak Reference
    __cpp_initialize__aeabi_                  - Undefined Weak Reference
    __cxa_finalize                            - Undefined Weak Reference
    __rt_locale                               - Undefined Weak Reference
    __sigvec_lookup                           - Undefined Weak Reference
    _atexit_init                              - Undefined Weak Reference
    _call_atexit_fns                          - Undefined Weak Reference
    _clock_init                               - Undefined Weak Reference
    _fp_trap_init                             - Undefined Weak Reference
    _fp_trap_shutdown                         - Undefined Weak Reference
    _get_lc_collate                           - Undefined Weak Reference
    _get_lc_ctype                             - Undefined Weak Reference
    _get_lc_monetary                          - Undefined Weak Reference
    _get_lc_numeric                           - Undefined Weak Reference
    _get_lc_time                              - Undefined Weak Reference
    _getenv_init                              - Undefined Weak Reference
    _handle_redirection                       - Undefined Weak Reference
    _init_alloc                               - Undefined Weak Reference
    _init_user_alloc                          - Undefined Weak Reference
    _initio                                   - Undefined Weak Reference
    _mutex_acquire                            - Undefined Weak Reference
    _mutex_release                            - Undefined Weak Reference
    _printf_mbtowc                            - Undefined Weak Reference
    _printf_truncate_signed                   - Undefined Weak Reference
    _printf_truncate_unsigned                 - Undefined Weak Reference
    _rand_init                                - Undefined Weak Reference
    _signal_finish                            - Undefined Weak Reference
    _signal_init                              - Undefined Weak Reference
    _terminate_alloc                          - Undefined Weak Reference
    _terminate_user_alloc                     - Undefined Weak Reference
    _terminateio                              - Undefined Weak Reference
    __Vectors_Size                           0x00000188   Number         0  startup_stm32f407xx.o ABSOLUTE
    __Vectors                                0x08000000   Data           4  startup_stm32f407xx.o(RESET)
    __Vectors_End                            0x08000188   Data           0  startup_stm32f407xx.o(RESET)
    __main                                   0x08000189   Thumb Code     8  __main.o(!!!main)
    __scatterload                            0x08000191   Thumb Code     0  __scatter.o(!!!scatter)
    __scatterload_rt2                        0x08000191   Thumb Code    44  __scatter.o(!!!scatter)
    __scatterload_rt2_thumb_only             0x08000191   Thumb Code     0  __scatter.o(!!!scatter)
    __scatterload_null                       0x0800019f   Thumb Code     0  __scatter.o(!!!scatter)
    __decompress                             0x080001c5   Thumb Code    90  __dczerorl2.o(!!dczerorl2)
    __decompress1                            0x080001c5   Thumb Code     0  __dczerorl2.o(!!dczerorl2)
    __scatterload_zeroinit                   0x08000221   Thumb Code    28  __scatter_zi.o(!!handler_zi)
    _printf_d                                0x0800023d   Thumb Code     0  _printf_d.o(.ARM.Collect$$_printf_percent$$00000009)
    _printf_percent                          0x0800023d   Thumb Code     0  _printf_percent.o(.ARM.Collect$$_printf_percent$$00000000)
    _printf_u                                0x08000243   Thumb Code     0  _printf_u.o(.ARM.Collect$$_printf_percent$$0000000A)
    _printf_x                                0x08000249   Thumb Code     0  _printf_x.o(.ARM.Collect$$_printf_percent$$0000000C)
    _printf_c                                0x0800024f   Thumb Code     0  _printf_c.o(.ARM.Collect$$_printf_percent$$00000013)
    _printf_s                                0x08000255   Thumb Code     0  _printf_s.o(.ARM.Collect$$_printf_percent$$00000014)
    _printf_percent_end                      0x0800025b   Thumb Code     0  _printf_percent_end.o(.ARM.Collect$$_printf_percent$$00000017)
    __rt_lib_init                            0x0800025f   Thumb Code     0  libinit.o(.ARM.Collect$$libinit$$00000000)
    __rt_lib_init_fp_1                       0x08000261   Thumb Code     0  libinit2.o(.ARM.Collect$$libinit$$00000001)
    __rt_lib_init_alloca_1                   0x08000265   Thumb Code     0  libinit2.o(.ARM.Collect$$libinit$$0000002E)
    __rt_lib_init_argv_1                     0x08000265   Thumb Code     0  libinit2.o(.ARM.Collect$$libinit$$0000002C)
    __rt_lib_init_atexit_1                   0x08000265   Thumb Code     0  libinit2.o(.ARM.Collect$$libinit$$0000001B)
    __rt_lib_init_clock_1                    0x08000265   Thumb Code     0  libinit2.o(.ARM.Collect$$libinit$$00000021)
    __rt_lib_init_cpp_1                      0x08000265   Thumb Code     0  libinit2.o(.ARM.Collect$$libinit$$00000032)
    __rt_lib_init_exceptions_1               0x08000265   Thumb Code     0  libinit2.o(.ARM.Collect$$libinit$$00000030)
    __rt_lib_init_fp_trap_1                  0x08000265   Thumb Code     0  libinit2.o(.ARM.Collect$$libinit$$0000001F)
    __rt_lib_init_getenv_1                   0x08000265   Thumb Code     0  libinit2.o(.ARM.Collect$$libinit$$00000023)
    __rt_lib_init_heap_1                     0x08000265   Thumb Code     0  libinit2.o(.ARM.Collect$$libinit$$0000000A)
    __rt_lib_init_lc_collate_1               0x08000265   Thumb Code     0  libinit2.o(.ARM.Collect$$libinit$$00000011)
    __rt_lib_init_lc_ctype_1                 0x08000265   Thumb Code     0  libinit2.o(.ARM.Collect$$libinit$$00000013)
    __rt_lib_init_lc_monetary_1              0x08000265   Thumb Code     0  libinit2.o(.ARM.Collect$$libinit$$00000015)
    __rt_lib_init_lc_numeric_1               0x08000265   Thumb Code     0  libinit2.o(.ARM.Collect$$libinit$$00000017)
    __rt_lib_init_lc_time_1                  0x08000265   Thumb Code     0  libinit2.o(.ARM.Collect$$libinit$$00000019)
    __rt_lib_init_preinit_1                  0x08000265   Thumb Code     0  libinit2.o(.ARM.Collect$$libinit$$00000004)
    __rt_lib_init_rand_1                     0x08000265   Thumb Code     0  libinit2.o(.ARM.Collect$$libinit$$0000000E)
    __rt_lib_init_return                     0x08000265   Thumb Code     0  libinit2.o(.ARM.Collect$$libinit$$00000033)
    __rt_lib_init_signal_1                   0x08000265   Thumb Code     0  libinit2.o(.ARM.Collect$$libinit$$0000001D)
    __rt_lib_init_stdio_1                    0x08000265   Thumb Code     0  libinit2.o(.ARM.Collect$$libinit$$00000025)
    __rt_lib_init_user_alloc_1               0x08000265   Thumb Code     0  libinit2.o(.ARM.Collect$$libinit$$0000000C)
    __rt_lib_shutdown                        0x08000267   Thumb Code     0  libshutdown.o(.ARM.Collect$$libshutdown$$00000000)
    __rt_lib_shutdown_cpp_1                  0x08000269   Thumb Code     0  libshutdown2.o(.ARM.Collect$$libshutdown$$00000004)
    __rt_lib_shutdown_fini_1                 0x08000269   Thumb Code     0  libshutdown2.o(.ARM.Collect$$libshutdown$$00000002)
    __rt_lib_shutdown_fp_trap_1              0x08000269   Thumb Code     0  libshutdown2.o(.ARM.Collect$$libshutdown$$00000009)
    __rt_lib_shutdown_heap_1                 0x08000269   Thumb Code     0  libshutdown2.o(.ARM.Collect$$libshutdown$$00000011)
    __rt_lib_shutdown_return                 0x08000269   Thumb Code     0  libshutdown2.o(.ARM.Collect$$libshutdown$$00000012)
    __rt_lib_shutdown_signal_1               0x08000269   Thumb Code     0  libshutdown2.o(.ARM.Collect$$libshutdown$$0000000C)
    __rt_lib_shutdown_stdio_1                0x08000269   Thumb Code     0  libshutdown2.o(.ARM.Collect$$libshutdown$$00000006)
    __rt_lib_shutdown_user_alloc_1           0x08000269   Thumb Code     0  libshutdown2.o(.ARM.Collect$$libshutdown$$0000000E)
    __rt_entry                               0x0800026b   Thumb Code     0  __rtentry.o(.ARM.Collect$$rtentry$$00000000)
    __rt_entry_presh_1                       0x0800026b   Thumb Code     0  __rtentry2.o(.ARM.Collect$$rtentry$$00000002)
    __rt_entry_sh                            0x0800026b   Thumb Code     0  __rtentry4.o(.ARM.Collect$$rtentry$$00000004)
    __rt_entry_li                            0x08000271   Thumb Code     0  __rtentry2.o(.ARM.Collect$$rtentry$$0000000A)
    __rt_entry_postsh_1                      0x08000271   Thumb Code     0  __rtentry2.o(.ARM.Collect$$rtentry$$00000009)
    __rt_entry_main                          0x08000275   Thumb Code     0  __rtentry2.o(.ARM.Collect$$rtentry$$0000000D)
    __rt_entry_postli_1                      0x08000275   Thumb Code     0  __rtentry2.o(.ARM.Collect$$rtentry$$0000000C)
    __rt_exit                                0x0800027d   Thumb Code     0  rtexit.o(.ARM.Collect$$rtexit$$00000000)
    __rt_exit_ls                             0x0800027f   Thumb Code     0  rtexit2.o(.ARM.Collect$$rtexit$$00000003)
    __rt_exit_prels_1                        0x0800027f   Thumb Code     0  rtexit2.o(.ARM.Collect$$rtexit$$00000002)
    __rt_exit_exit                           0x08000283   Thumb Code     0  rtexit2.o(.ARM.Collect$$rtexit$$00000004)
    Reset_Handler                            0x08000289   Thumb Code    14  startup_stm32f407xx.o(.text)
    NMI_Handler                              0x08000297   Thumb Code     2  startup_stm32f407xx.o(.text)
    HardFault_Handler                        0x08000299   Thumb Code     2  startup_stm32f407xx.o(.text)
    MemManage_Handler                        0x0800029b   Thumb Code     2  startup_stm32f407xx.o(.text)
    BusFault_Handler                         0x0800029d   Thumb Code     2  startup_stm32f407xx.o(.text)
    UsageFault_Handler                       0x0800029f   Thumb Code     2  startup_stm32f407xx.o(.text)
    SVC_Handler                              0x080002a1   Thumb Code     2  startup_stm32f407xx.o(.text)
    DebugMon_Handler                         0x080002a3   Thumb Code     2  startup_stm32f407xx.o(.text)
    PendSV_Handler                           0x080002a5   Thumb Code     2  startup_stm32f407xx.o(.text)
    SysTick_Handler                          0x080002a7   Thumb Code     2  startup_stm32f407xx.o(.text)
    ADC_IRQHandler                           0x080002a9   Thumb Code     0  startup_stm32f407xx.o(.text)
    CAN1_RX0_IRQHandler                      0x080002a9   Thumb Code     0  startup_stm32f407xx.o(.text)
    CAN1_RX1_IRQHandler                      0x080002a9   Thumb Code     0  startup_stm32f407xx.o(.text)
    CAN1_SCE_IRQHandler                      0x080002a9   Thumb Code     0  startup_stm32f407xx.o(.text)
    CAN1_TX_IRQHandler                       0x080002a9   Thumb Code     0  startup_stm32f407xx.o(.text)
    CAN2_RX0_IRQHandler                      0x080002a9   Thumb Code     0  startup_stm32f407xx.o(.text)
    CAN2_RX1_IRQHandler                      0x080002a9   Thumb Code     0  startup_stm32f407xx.o(.text)
    CAN2_SCE_IRQHandler                      0x080002a9   Thumb Code     0  startup_stm32f407xx.o(.text)
    CAN2_TX_IRQHandler                       0x080002a9   Thumb Code     0  startup_stm32f407xx.o(.text)
    DMA1_Stream0_IRQHandler                  0x080002a9   Thumb Code     0  startup_stm32f407xx.o(.text)
    DMA1_Stream1_IRQHandler                  0x080002a9   Thumb Code     0  startup_stm32f407xx.o(.text)
    DMA1_Stream2_IRQHandler                  0x080002a9   Thumb Code     0  startup_stm32f407xx.o(.text)
    DMA1_Stream3_IRQHandler                  0x080002a9   Thumb Code     0  startup_stm32f407xx.o(.text)
    DMA1_Stream4_IRQHandler                  0x080002a9   Thumb Code     0  startup_stm32f407xx.o(.text)
    DMA1_Stream5_IRQHandler                  0x080002a9   Thumb Code     0  startup_stm32f407xx.o(.text)
    DMA1_Stream6_IRQHandler                  0x080002a9   Thumb Code     0  startup_stm32f407xx.o(.text)
    DMA1_Stream7_IRQHandler                  0x080002a9   Thumb Code     0  startup_stm32f407xx.o(.text)
    DMA2_Stream0_IRQHandler                  0x080002a9   Thumb Code     0  startup_stm32f407xx.o(.text)
    DMA2_Stream2_IRQHandler                  0x080002a9   Thumb Code     0  startup_stm32f407xx.o(.text)
    DMA2_Stream3_IRQHandler                  0x080002a9   Thumb Code     0  startup_stm32f407xx.o(.text)
    DMA2_Stream4_IRQHandler                  0x080002a9   Thumb Code     0  startup_stm32f407xx.o(.text)
    DMA2_Stream5_IRQHandler                  0x080002a9   Thumb Code     0  startup_stm32f407xx.o(.text)
    DMA2_Stream6_IRQHandler                  0x080002a9   Thumb Code     0  startup_stm32f407xx.o(.text)
    DMA2_Stream7_IRQHandler                  0x080002a9   Thumb Code     0  startup_stm32f407xx.o(.text)
    ETH_IRQHandler                           0x080002a9   Thumb Code     0  startup_stm32f407xx.o(.text)
    ETH_WKUP_IRQHandler                      0x080002a9   Thumb Code     0  startup_stm32f407xx.o(.text)
    EXTI0_IRQHandler                         0x080002a9   Thumb Code     0  startup_stm32f407xx.o(.text)
    EXTI15_10_IRQHandler                     0x080002a9   Thumb Code     0  startup_stm32f407xx.o(.text)
    EXTI1_IRQHandler                         0x080002a9   Thumb Code     0  startup_stm32f407xx.o(.text)
    EXTI2_IRQHandler                         0x080002a9   Thumb Code     0  startup_stm32f407xx.o(.text)
    EXTI3_IRQHandler                         0x080002a9   Thumb Code     0  startup_stm32f407xx.o(.text)
    EXTI4_IRQHandler                         0x080002a9   Thumb Code     0  startup_stm32f407xx.o(.text)
    EXTI9_5_IRQHandler                       0x080002a9   Thumb Code     0  startup_stm32f407xx.o(.text)
    FLASH_IRQHandler                         0x080002a9   Thumb Code     0  startup_stm32f407xx.o(.text)
    FMC_IRQHandler                           0x080002a9   Thumb Code     0  startup_stm32f407xx.o(.text)
    FPU_IRQHandler                           0x080002a9   Thumb Code     0  startup_stm32f407xx.o(.text)
    HASH_RNG_IRQHandler                      0x080002a9   Thumb Code     0  startup_stm32f407xx.o(.text)
    I2C1_ER_IRQHandler                       0x080002a9   Thumb Code     0  startup_stm32f407xx.o(.text)
    I2C1_EV_IRQHandler                       0x080002a9   Thumb Code     0  startup_stm32f407xx.o(.text)
    I2C2_ER_IRQHandler                       0x080002a9   Thumb Code     0  startup_stm32f407xx.o(.text)
    I2C2_EV_IRQHandler                       0x080002a9   Thumb Code     0  startup_stm32f407xx.o(.text)
    I2C3_ER_IRQHandler                       0x080002a9   Thumb Code     0  startup_stm32f407xx.o(.text)
    I2C3_EV_IRQHandler                       0x080002a9   Thumb Code     0  startup_stm32f407xx.o(.text)
    OTG_FS_IRQHandler                        0x080002a9   Thumb Code     0  startup_stm32f407xx.o(.text)
    OTG_FS_WKUP_IRQHandler                   0x080002a9   Thumb Code     0  startup_stm32f407xx.o(.text)
    OTG_HS_EP1_IN_IRQHandler                 0x080002a9   Thumb Code     0  startup_stm32f407xx.o(.text)
    OTG_HS_EP1_OUT_IRQHandler                0x080002a9   Thumb Code     0  startup_stm32f407xx.o(.text)
    OTG_HS_IRQHandler                        0x080002a9   Thumb Code     0  startup_stm32f407xx.o(.text)
    OTG_HS_WKUP_IRQHandler                   0x080002a9   Thumb Code     0  startup_stm32f407xx.o(.text)
    PVD_IRQHandler                           0x080002a9   Thumb Code     0  startup_stm32f407xx.o(.text)
    RCC_IRQHandler                           0x080002a9   Thumb Code     0  startup_stm32f407xx.o(.text)
    RTC_Alarm_IRQHandler                     0x080002a9   Thumb Code     0  startup_stm32f407xx.o(.text)
    RTC_WKUP_IRQHandler                      0x080002a9   Thumb Code     0  startup_stm32f407xx.o(.text)
    SDIO_IRQHandler                          0x080002a9   Thumb Code     0  startup_stm32f407xx.o(.text)
    SPI1_IRQHandler                          0x080002a9   Thumb Code     0  startup_stm32f407xx.o(.text)
    SPI2_IRQHandler                          0x080002a9   Thumb Code     0  startup_stm32f407xx.o(.text)
    SPI3_IRQHandler                          0x080002a9   Thumb Code     0  startup_stm32f407xx.o(.text)
    TAMP_STAMP_IRQHandler                    0x080002a9   Thumb Code     0  startup_stm32f407xx.o(.text)
    TIM1_BRK_TIM9_IRQHandler                 0x080002a9   Thumb Code     0  startup_stm32f407xx.o(.text)
    TIM1_CC_IRQHandler                       0x080002a9   Thumb Code     0  startup_stm32f407xx.o(.text)
    TIM1_TRG_COM_TIM11_IRQHandler            0x080002a9   Thumb Code     0  startup_stm32f407xx.o(.text)
    TIM1_UP_TIM10_IRQHandler                 0x080002a9   Thumb Code     0  startup_stm32f407xx.o(.text)
    TIM2_IRQHandler                          0x080002a9   Thumb Code     0  startup_stm32f407xx.o(.text)
    TIM3_IRQHandler                          0x080002a9   Thumb Code     0  startup_stm32f407xx.o(.text)
    TIM5_IRQHandler                          0x080002a9   Thumb Code     0  startup_stm32f407xx.o(.text)
    TIM7_IRQHandler                          0x080002a9   Thumb Code     0  startup_stm32f407xx.o(.text)
    TIM8_BRK_TIM12_IRQHandler                0x080002a9   Thumb Code     0  startup_stm32f407xx.o(.text)
    TIM8_CC_IRQHandler                       0x080002a9   Thumb Code     0  startup_stm32f407xx.o(.text)
    TIM8_TRG_COM_TIM14_IRQHandler            0x080002a9   Thumb Code     0  startup_stm32f407xx.o(.text)
    TIM8_UP_TIM13_IRQHandler                 0x080002a9   Thumb Code     0  startup_stm32f407xx.o(.text)
    UART4_IRQHandler                         0x080002a9   Thumb Code     0  startup_stm32f407xx.o(.text)
    UART5_IRQHandler                         0x080002a9   Thumb Code     0  startup_stm32f407xx.o(.text)
    USART2_IRQHandler                        0x080002a9   Thumb Code     0  startup_stm32f407xx.o(.text)
    USART3_IRQHandler                        0x080002a9   Thumb Code     0  startup_stm32f407xx.o(.text)
    USART6_IRQHandler                        0x080002a9   Thumb Code     0  startup_stm32f407xx.o(.text)
    WWDG_IRQHandler                          0x080002a9   Thumb Code     0  startup_stm32f407xx.o(.text)
    __user_initial_stackheap                 0x080002ad   Thumb Code     0  startup_stm32f407xx.o(.text)
    __use_no_semihosting                     0x080002cd   Thumb Code     2  use_no_semi_2.o(.text)
    __aeabi_uldivmod                         0x080002cf   Thumb Code     0  lludivv7m.o(.text)
    _ll_udiv                                 0x080002cf   Thumb Code   238  lludivv7m.o(.text)
    __aeabi_ldivmod                          0x080003bd   Thumb Code     0  llsdiv.o(.text)
    _ll_sdiv                                 0x080003bd   Thumb Code    72  llsdiv.o(.text)
    __2printf                                0x08000405   Thumb Code    20  noretval__2printf.o(.text)
    __2sprintf                               0x0800041d   Thumb Code    34  noretval__2sprintf.o(.text)
    _printf_pre_padding                      0x08000445   Thumb Code    44  _printf_pad.o(.text)
    _printf_post_padding                     0x08000471   Thumb Code    34  _printf_pad.o(.text)
    _printf_str                              0x08000493   Thumb Code    82  _printf_str.o(.text)
    _printf_int_dec                          0x080004e5   Thumb Code   104  _printf_dec.o(.text)
    _printf_int_hex                          0x0800055d   Thumb Code    84  _printf_hex_int.o(.text)
    _printf_longlong_hex                     0x0800055d   Thumb Code     0  _printf_hex_int.o(.text)
    __printf                                 0x080005b5   Thumb Code   388  __printf_flags_ss_wp.o(.text)
    strchr                                   0x0800073d   Thumb Code    20  strchr.o(.text)
    memcmp                                   0x08000751   Thumb Code    88  memcmp.o(.text)
    strcpy                                   0x080007a9   Thumb Code    72  strcpy.o(.text)
    strlen                                   0x080007f1   Thumb Code    62  strlen.o(.text)
    __aeabi_memcpy                           0x0800082f   Thumb Code     0  rt_memcpy_v6.o(.text)
    __rt_memcpy                              0x0800082f   Thumb Code   138  rt_memcpy_v6.o(.text)
    _memcpy_lastbytes                        0x08000895   Thumb Code     0  rt_memcpy_v6.o(.text)
    __aeabi_memcpy4                          0x080008b9   Thumb Code     0  rt_memcpy_w.o(.text)
    __aeabi_memcpy8                          0x080008b9   Thumb Code     0  rt_memcpy_w.o(.text)
    __rt_memcpy_w                            0x080008b9   Thumb Code   100  rt_memcpy_w.o(.text)
    _memcpy_lastbytes_aligned                0x08000901   Thumb Code     0  rt_memcpy_w.o(.text)
    __aeabi_memset                           0x0800091d   Thumb Code    16  aeabi_memset.o(.text)
    __aeabi_memclr                           0x0800092d   Thumb Code     0  rt_memclr.o(.text)
    __rt_memclr                              0x0800092d   Thumb Code    68  rt_memclr.o(.text)
    _memset                                  0x08000931   Thumb Code     0  rt_memclr.o(.text)
    __aeabi_memclr4                          0x08000971   Thumb Code     0  rt_memclr_w.o(.text)
    __aeabi_memclr8                          0x08000971   Thumb Code     0  rt_memclr_w.o(.text)
    __rt_memclr_w                            0x08000971   Thumb Code    78  rt_memclr_w.o(.text)
    _memset_w                                0x08000975   Thumb Code     0  rt_memclr_w.o(.text)
    strcmp                                   0x080009c1   Thumb Code   128  strcmpv7m.o(.text)
    __use_two_region_memory                  0x08000a41   Thumb Code     2  heapauxi.o(.text)
    __rt_heap_escrow$2region                 0x08000a43   Thumb Code     2  heapauxi.o(.text)
    __rt_heap_expand$2region                 0x08000a45   Thumb Code     2  heapauxi.o(.text)
    __semihosting$guard                      0x08000a47   Thumb Code     0  use_no_semi.o(.text)
    __use_no_semihosting_swi                 0x08000a47   Thumb Code     2  use_no_semi.o(.text)
    __read_errno                             0x08000a49   Thumb Code    10  _rserrno.o(.text)
    __set_errno                              0x08000a53   Thumb Code    12  _rserrno.o(.text)
    _printf_int_common                       0x08000a5f   Thumb Code   178  _printf_intcommon.o(.text)
    _printf_char_common                      0x08000b1b   Thumb Code    32  _printf_char_common.o(.text)
    _sputc                                   0x08000b41   Thumb Code    10  _sputc.o(.text)
    _printf_cs_common                        0x08000b4b   Thumb Code    20  _printf_char.o(.text)
    _printf_char                             0x08000b5f   Thumb Code    16  _printf_char.o(.text)
    _printf_string                           0x08000b6f   Thumb Code     8  _printf_char.o(.text)
    _printf_char_file                        0x08000b79   Thumb Code    32  _printf_char_file.o(.text)
    __aeabi_errno_addr                       0x08000b9d   Thumb Code     8  rt_errno_addr_intlibspace.o(.text)
    __errno$intlibspace                      0x08000b9d   Thumb Code     0  rt_errno_addr_intlibspace.o(.text)
    __rt_errno_addr$intlibspace              0x08000b9d   Thumb Code     0  rt_errno_addr_intlibspace.o(.text)
    ferror                                   0x08000ba5   Thumb Code     8  ferror.o(.text)
    __user_libspace                          0x08000bad   Thumb Code     8  libspace.o(.text)
    __user_perproc_libspace                  0x08000bad   Thumb Code     0  libspace.o(.text)
    __user_perthread_libspace                0x08000bad   Thumb Code     0  libspace.o(.text)
    __user_setup_stackheap                   0x08000bb5   Thumb Code    74  sys_stackheap_outer.o(.text)
    exit                                     0x08000bff   Thumb Code    18  exit.o(.text)
    CreateMatrix                             0x08000c11   Thumb Code   146  matrix.o(i.CreateMatrix)
    DCMI_IRQHandler                          0x08000ca5   Thumb Code    56  dcmi.o(i.DCMI_IRQHandler)
    DMA2_Stream1_IRQHandler                  0x08000ce9   Thumb Code    36  dcmi.o(i.DMA2_Stream1_IRQHandler)
    FreeMatrix                               0x08000d15   Thumb Code    52  matrix.o(i.FreeMatrix)
    Gabor                                    0x08000d49   Thumb Code  2286  gabor.o(i.Gabor)
    GaborFilterFinialize                     0x08001659   Thumb Code   442  gabor.o(i.GaborFilterFinialize)
    GaborFilterInitialize                    0x0800186d   Thumb Code   608  gabor.o(i.GaborFilterInitialize)
    GaborFilteredImg                         0x08001b75   Thumb Code  1130  gabor.o(i.GaborFilteredImg)
    Mat_Copy                                 0x08001fdf   Thumb Code   198  matrix.o(i.Mat_Copy)
    Mat_FFT2                                 0x080020a5   Thumb Code   240  matrix.o(i.Mat_FFT2)
    Mat_FFT_Mem_Free                         0x080021a5   Thumb Code   154  matrix.o(i.Mat_FFT_Mem_Free)
    Mat_FFT_Mem_Init                         0x0800225d   Thumb Code   180  matrix.o(i.Mat_FFT_Mem_Init)
    Mat_IFFT2                                0x0800232d   Thumb Code   274  matrix.o(i.Mat_IFFT2)
    Mat_Product                              0x08002451   Thumb Code    78  matrix.o(i.Mat_Product)
    Mat_Substract                            0x0800249f   Thumb Code    78  matrix.o(i.Mat_Substract)
    Mat_Sum                                  0x080024ed   Thumb Code    78  matrix.o(i.Mat_Sum)
    Mat_Zeros                                0x0800253d   Thumb Code    44  matrix.o(i.Mat_Zeros)
    SYN_FrameInfo                            0x0800256d   Thumb Code   122  syn6288.o(i.SYN_FrameInfo)
    SensorGPIOConfig                         0x080025e9   Thumb Code    34  main.o(i.SensorGPIOConfig)
    SensorStatus                             0x08002615   Thumb Code    30  main.o(i.SensorStatus)
    TIM4_IRQHandler                          0x0800263d   Thumb Code    50  usmart_port.o(i.TIM4_IRQHandler)
    TIM6_DAC_IRQHandler                      0x08002679   Thumb Code    42  btim.o(i.TIM6_DAC_IRQHandler)
    USART1_IRQHandler                        0x080026bd   Thumb Code   116  usart.o(i.USART1_IRQHandler)
    USART2_SendData                          0x0800273d   Thumb Code    22  usart2.o(i.USART2_SendData)
    USART2_SendString                        0x08002759   Thumb Code    28  usart2.o(i.USART2_SendString)
    __ARM_fpclassify                         0x08002775   Thumb Code    48  fpclassify.o(i.__ARM_fpclassify)
    __hardfp_ceil                            0x080027a9   Thumb Code   252  ceil.o(i.__hardfp_ceil)
    __hardfp_cos                             0x080028c1   Thumb Code   180  cos.o(i.__hardfp_cos)
    __hardfp_exp                             0x08002989   Thumb Code   714  exp.o(i.__hardfp_exp)
    __hardfp_log                             0x08002ce1   Thumb Code   872  log.o(i.__hardfp_log)
    __hardfp_log10                           0x080030a9   Thumb Code   260  log10.o(i.__hardfp_log10)
    __hardfp_log2                            0x080031d9   Thumb Code    72  matrix.o(i.__hardfp_log2)
    __hardfp_pow                             0x08003229   Thumb Code  3072  pow.o(i.__hardfp_pow)
    __hardfp_sin                             0x08003e79   Thumb Code   180  sin.o(i.__hardfp_sin)
    __hardfp_sqrt                            0x08003f41   Thumb Code   122  sqrt.o(i.__hardfp_sqrt)
    __hardfp_tan                             0x08003fc1   Thumb Code   108  tan.o(i.__hardfp_tan)
    __ieee754_rem_pio2                       0x08004041   Thumb Code   938  rred.o(i.__ieee754_rem_pio2)
    __kernel_cos                             0x08004479   Thumb Code   322  cos_i.o(i.__kernel_cos)
    __kernel_poly                            0x080045e9   Thumb Code   248  poly.o(i.__kernel_poly)
    __kernel_sin                             0x080046e1   Thumb Code   280  sin_i.o(i.__kernel_sin)
    __kernel_tan                             0x08004811   Thumb Code   764  tan_i.o(i.__kernel_tan)
    __mathlib_dbl_divzero                    0x08004b61   Thumb Code    28  dunder.o(i.__mathlib_dbl_divzero)
    __mathlib_dbl_infnan                     0x08004b91   Thumb Code    20  dunder.o(i.__mathlib_dbl_infnan)
    __mathlib_dbl_infnan2                    0x08004ba5   Thumb Code    20  dunder.o(i.__mathlib_dbl_infnan2)
    __mathlib_dbl_invalid                    0x08004bb9   Thumb Code    24  dunder.o(i.__mathlib_dbl_invalid)
    __mathlib_dbl_overflow                   0x08004bd9   Thumb Code    24  dunder.o(i.__mathlib_dbl_overflow)
    __mathlib_dbl_underflow                  0x08004bf9   Thumb Code    24  dunder.o(i.__mathlib_dbl_underflow)
    _is_digit                                0x08004c19   Thumb Code    14  __printf_wp.o(i._is_digit)
    _sys_exit                                0x08004c27   Thumb Code     4  usart.o(i._sys_exit)
    alarm_say                                0x08004c2d   Thumb Code    12  syn6288.o(i.alarm_say)
    atk_frec_add_a_face                      0x08004c81   Thumb Code   272  recog.o(i.atk_frec_add_a_face)
    atk_frec_binaryzation                    0x08004d99   Thumb Code   116  recog.o(i.atk_frec_binaryzation)
    atk_frec_delete_data                     0x08004e0d   Thumb Code    46  atk_frec.o(i.atk_frec_delete_data)
    atk_frec_destroy                         0x08004e59   Thumb Code    62  recog.o(i.atk_frec_destroy)
    atk_frec_free                            0x08004ea1   Thumb Code    14  atk_frec.o(i.atk_frec_free)
    atk_frec_initialization                  0x08004eb1   Thumb Code   134  recog.o(i.atk_frec_initialization)
    atk_frec_load_data_model                 0x08004f41   Thumb Code    84  recog.o(i.atk_frec_load_data_model)
    atk_frec_malloc                          0x08004f9d   Thumb Code    14  atk_frec.o(i.atk_frec_malloc)
    atk_frec_memset                          0x08004fab   Thumb Code    20  atk_frec.o(i.atk_frec_memset)
    atk_frec_normalization                   0x08004fc1   Thumb Code   158  recog.o(i.atk_frec_normalization)
    atk_frec_read_data                       0x08005065   Thumb Code   120  atk_frec.o(i.atk_frec_read_data)
    atk_frec_recognition_face                0x080050f9   Thumb Code   202  recog.o(i.atk_frec_recognition_face)
    atk_frec_save_data                       0x080051d9   Thumb Code   112  atk_frec.o(i.atk_frec_save_data)
    beep_init                                0x08005271   Thumb Code    50  beep.o(i.beep_init)
    bmp_encode                               0x080054e5   Thumb Code   488  bmp.o(i.bmp_encode)
    btim_timx_int_init                       0x080056d5   Thumb Code    62  btim.o(i.btim_timx_int_init)
    calcMoveDistMat                          0x0800571d   Thumb Code   144  recog.o(i.calcMoveDistMat)
    calcOffsetDist                           0x080057b5   Thumb Code   670  recog.o(i.calcOffsetDist)
    close_door                               0x08005c63   Thumb Code    10  pwmdac.o(i.close_door)
    cross                                    0x08006399   Thumb Code   188  main.o(i.cross)
    dcmi_dma_init                            0x080064dd   Thumb Code   150  dcmi.o(i.dcmi_dma_init)
    dcmi_init                                0x08006581   Thumb Code   326  dcmi.o(i.dcmi_init)
    dcmi_start                               0x080066e1   Thumb Code    40  dcmi.o(i.dcmi_start)
    dcmi_stop                                0x08006711   Thumb Code    40  dcmi.o(i.dcmi_stop)
    delay_init                               0x08006741   Thumb Code    38  delay.o(i.delay_init)
    delay_ms                                 0x0800676d   Thumb Code    18  delay.o(i.delay_ms)
    delay_us                                 0x08006781   Thumb Code    68  delay.o(i.delay_us)
    dir_sdi                                  0x08006f2d   Thumb Code   170  ff.o(i.dir_sdi)
    disk_initialize                          0x08006fd7   Thumb Code    44  diskio.o(i.disk_initialize)
    disk_ioctl                               0x08007005   Thumb Code   170  diskio.o(i.disk_ioctl)
    disk_read                                0x080070b5   Thumb Code   126  diskio.o(i.disk_read)
    disk_status                              0x08007133   Thumb Code     6  diskio.o(i.disk_status)
    disk_write                               0x08007139   Thumb Code   126  diskio.o(i.disk_write)
    error_say                                0x080071b9   Thumb Code    12  syn6288.o(i.error_say)
    exfuns_char_upper                        0x080071e5   Thumb Code    26  exfuns.o(i.exfuns_char_upper)
    exfuns_file_type                         0x08007201   Thumb Code   186  exfuns.o(i.exfuns_file_type)
    exfuns_init                              0x080072c1   Thumb Code    64  exfuns.o(i.exfuns_init)
    f_close                                  0x08007305   Thumb Code    38  ff.o(i.f_close)
    f_lseek                                  0x0800732b   Thumb Code  1134  ff.o(i.f_lseek)
    f_mkdir                                  0x08007799   Thumb Code   418  ff.o(i.f_mkdir)
    f_mount                                  0x0800793d   Thumb Code    80  ff.o(i.f_mount)
    f_open                                   0x08007991   Thumb Code   786  ff.o(i.f_open)
    f_opendir                                0x08007ca3   Thumb Code   184  ff.o(i.f_opendir)
    f_read                                   0x08007d5b   Thumb Code   552  ff.o(i.f_read)
    f_readdir                                0x08007f83   Thumb Code   112  ff.o(i.f_readdir)
    f_sync                                   0x08007ff3   Thumb Code   424  ff.o(i.f_sync)
    f_unlink                                 0x0800819b   Thumb Code   252  ff.o(i.f_unlink)
    f_write                                  0x08008297   Thumb Code   644  ff.o(i.f_write)
    fabs                                     0x0800851b   Thumb Code    24  fabs.o(i.fabs)
    ff_memalloc                              0x08008533   Thumb Code    14  ffsystem.o(i.ff_memalloc)
    ff_memfree                               0x08008541   Thumb Code    14  ffsystem.o(i.ff_memfree)
    ff_oem2uni                               0x08008551   Thumb Code   130  myffunicode.o(i.ff_oem2uni)
    ff_uni2oem                               0x080085d9   Thumb Code   126  myffunicode.o(i.ff_uni2oem)
    ff_wtoupper                              0x0800865d   Thumb Code   166  myffunicode.o(i.ff_wtoupper)
    fonts_init                               0x08008969   Thumb Code    60  fonts.o(i.fonts_init)
    four1                                    0x080089a9   Thumb Code   808  matrix.o(i.four1)
    four2                                    0x08008cf9   Thumb Code   352  matrix.o(i.four2)
    fputc                                    0x08008e65   Thumb Code    22  usart.o(i.fputc)
    frec_get_image_data                      0x08008e81   Thumb Code   158  face_recognition.o(i.frec_get_image_data)
    free_matrix                              0x08008f1f   Thumb Code    66  matrix.o(i.free_matrix)
    free_vector                              0x08008f61   Thumb Code    18  matrix.o(i.free_vector)
    get_fattime                              0x080091dd   Thumb Code     4  ffsystem.o(i.get_fattime)
    gif_decode                               0x080096f5   Thumb Code   296  gif.o(i.gif_decode)
    gif_getinfo                              0x08009bf9   Thumb Code    70  gif.o(i.gif_getinfo)
    jd_decomp                                0x0800a483   Thumb Code   132  tjpgd.o(i.jd_decomp)
    jd_prepare                               0x0800a509   Thumb Code   696  tjpgd.o(i.jd_prepare)
    jpeg_data_process                        0x0800a7c5   Thumb Code   198  main.o(i.jpeg_data_process)
    jpg_decode                               0x0800aa0d   Thumb Code   174  tjpgd.o(i.jpg_decode)
    key_init                                 0x0800aad1   Thumb Code   136  key.o(i.key_init)
    key_scan                                 0x0800ab65   Thumb Code   186  key.o(i.key_scan)
    lcd_clear                                0x0800ac2d   Thumb Code    42  lcd.o(i.lcd_clear)
    lcd_color_fill                           0x0800ac61   Thumb Code    92  lcd.o(i.lcd_color_fill)
    lcd_display_dir                          0x0800acc1   Thumb Code   360  lcd.o(i.lcd_display_dir)
    lcd_draw_hline                           0x0800ae2d   Thumb Code    52  lcd.o(i.lcd_draw_hline)
    lcd_draw_point                           0x0800ae65   Thumb Code    26  lcd.o(i.lcd_draw_point)
    lcd_ex_ili9341_reginit                   0x0800ae85   Thumb Code   556  lcd.o(i.lcd_ex_ili9341_reginit)
    lcd_ex_ili9806_reginit                   0x0800b0b1   Thumb Code   832  lcd.o(i.lcd_ex_ili9806_reginit)
    lcd_ex_nt35310_reginit                   0x0800b3f1   Thumb Code  3826  lcd.o(i.lcd_ex_nt35310_reginit)
    lcd_ex_nt35510_reginit                   0x0800c2e3   Thumb Code  3836  lcd.o(i.lcd_ex_nt35510_reginit)
    lcd_ex_ssd1963_reginit                   0x0800d1df   Thumb Code   366  lcd.o(i.lcd_ex_ssd1963_reginit)
    lcd_ex_st7789_reginit                    0x0800d34d   Thumb Code   424  lcd.o(i.lcd_ex_st7789_reginit)
    lcd_ex_st7796_reginit                    0x0800d4f5   Thumb Code   454  lcd.o(i.lcd_ex_st7796_reginit)
    lcd_fill                                 0x0800d6bd   Thumb Code    80  lcd.o(i.lcd_fill)
    lcd_init                                 0x0800d711   Thumb Code  1484  lcd.o(i.lcd_init)
    lcd_read_point                           0x0800dd19   Thumb Code   148  lcd.o(i.lcd_read_point)
    lcd_scan_dir                             0x0800ddb1   Thumb Code   568  lcd.o(i.lcd_scan_dir)
    lcd_set_cursor                           0x0800dfed   Thumb Code   282  lcd.o(i.lcd_set_cursor)
    lcd_show_char                            0x0800e10d   Thumb Code   294  lcd.o(i.lcd_show_char)
    lcd_show_string                          0x0800e24d   Thumb Code   106  lcd.o(i.lcd_show_string)
    lcd_ssd_backlight_set                    0x0800e2b9   Thumb Code    88  lcd.o(i.lcd_ssd_backlight_set)
    lcd_wr_data                              0x0800e319   Thumb Code    18  lcd.o(i.lcd_wr_data)
    lcd_wr_regno                             0x0800e331   Thumb Code    18  lcd.o(i.lcd_wr_regno)
    lcd_write_ram_prepare                    0x0800e349   Thumb Code    10  lcd.o(i.lcd_write_ram_prepare)
    lcd_write_reg                            0x0800e35d   Thumb Code    14  lcd.o(i.lcd_write_reg)
    led_init                                 0x0800e41d   Thumb Code    90  led.o(i.led_init)
    log                                      0x0800e5cf   Thumb Code    16  log.o(i.log)
    main                                     0x0800e5e1   Thumb Code  1890  main.o(i.main)
    matrix                                   0x0800eddd   Thumb Code   106  matrix.o(i.matrix)
    mf_free                                  0x0800f2c1   Thumb Code    26  fattester.o(i.mf_free)
    mf_init                                  0x0800f2e1   Thumb Code    58  fattester.o(i.mf_init)
    mf_scan_files                            0x0800f321   Thumb Code    74  fattester.o(i.mf_scan_files)
    my_mem_init                              0x0800f899   Thumb Code    38  malloc.o(i.my_mem_init)
    my_mem_perused                           0x0800f971   Thumb Code    56  malloc.o(i.my_mem_perused)
    my_mem_set                               0x0800f9b1   Thumb Code    20  malloc.o(i.my_mem_set)
    myfree                                   0x0800f9c5   Thumb Code    30  malloc.o(i.myfree)
    mymalloc                                 0x0800f9e9   Thumb Code    34  malloc.o(i.mymalloc)
    norflash_erase_sector                    0x0800fa11   Thumb Code    54  norflash.o(i.norflash_erase_sector)
    norflash_init                            0x0800fa4d   Thumb Code   138  norflash.o(i.norflash_init)
    norflash_read                            0x0800fae5   Thumb Code    68  norflash.o(i.norflash_read)
    norflash_read_id                         0x0800fb2d   Thumb Code    68  norflash.o(i.norflash_read_id)
    norflash_read_sr                         0x0800fb75   Thumb Code    80  norflash.o(i.norflash_read_sr)
    norflash_write                           0x0800fc11   Thumb Code   180  norflash.o(i.norflash_write)
    norflash_write_enable                    0x0800fcc9   Thumb Code    32  norflash.o(i.norflash_write_enable)
    norflash_write_sr                        0x0800fd85   Thumb Code    76  norflash.o(i.norflash_write_sr)
    open_door                                0x0800fdd5   Thumb Code    30  pwmdac.o(i.open_door)
    open_say                                 0x0800fdf5   Thumb Code    12  syn6288.o(i.open_say)
    ov2640_init                              0x0800fe25   Thumb Code   276  ov2640.o(i.ov2640_init)
    ov2640_outsize_set                       0x0800ff5d   Thumb Code   136  ov2640.o(i.ov2640_outsize_set)
    ov2640_read_reg                          0x0800ffe5   Thumb Code    78  ov2640.o(i.ov2640_read_reg)
    ov2640_rgb565_mode                       0x08010035   Thumb Code    36  ov2640.o(i.ov2640_rgb565_mode)
    ov2640_write_reg                         0x0801005d   Thumb Code    74  ov2640.o(i.ov2640_write_reg)
    piclib_ai_draw_init                      0x08010135   Thumb Code   216  piclib.o(i.piclib_ai_draw_init)
    piclib_ai_load_picfile                   0x08010215   Thumb Code   194  piclib.o(i.piclib_ai_load_picfile)
    piclib_init                              0x08010311   Thumb Code    58  piclib.o(i.piclib_init)
    piclib_is_element_ok                     0x0801036d   Thumb Code    36  piclib.o(i.piclib_is_element_ok)
    piclib_mem_free                          0x08010395   Thumb Code    14  piclib.o(i.piclib_mem_free)
    piclib_mem_malloc                        0x080103a3   Thumb Code    14  piclib.o(i.piclib_mem_malloc)
    printMatrixCreate                        0x080103b1   Thumb Code     2  gabor.o(i.printMatrixCreate)
    pwmdac_init                              0x080105bd   Thumb Code   252  pwmdac.o(i.pwmdac_init)
    read_addr                                0x080106c1   Thumb Code     6  usmart.o(i.read_addr)
    sccb_init                                0x0801089d   Thumb Code    74  sccb.o(i.sccb_init)
    sccb_nack                                0x080108f1   Thumb Code    46  sccb.o(i.sccb_nack)
    sccb_read_byte                           0x08010925   Thumb Code    66  sccb.o(i.sccb_read_byte)
    sccb_send_byte                           0x0801096d   Thumb Code   116  sccb.o(i.sccb_send_byte)
    sccb_start                               0x080109e5   Thumb Code    56  sccb.o(i.sccb_start)
    sccb_stop                                0x08010a21   Thumb Code    46  sccb.o(i.sccb_stop)
    sd_init                                  0x08010a55   Thumb Code   438  sdio_sdcard.o(i.sd_init)
    sd_read_disk                             0x08010c29   Thumb Code    58  sdio_sdcard.o(i.sd_read_disk)
    sd_write_disk                            0x08010c69   Thumb Code    58  sdio_sdcard.o(i.sd_write_disk)
    spi1_init                                0x08011ce5   Thumb Code   210  spi.o(i.spi1_init)
    spi1_read_write_byte                     0x08011dc5   Thumb Code    42  spi.o(i.spi1_read_write_byte)
    spi1_set_speed                           0x08011df5   Thumb Code    48  spi.o(i.spi1_set_speed)
    sqrt                                     0x08011e29   Thumb Code   110  sqrt.o(i.sqrt)
    sram_init                                0x08011e99   Thumb Code   412  sram.o(i.sram_init)
    stdbmp_decode                            0x080120f1   Thumb Code   724  bmp.o(i.stdbmp_decode)
    sw_ov2640_mode                           0x08012461   Thumb Code    52  main.o(i.sw_ov2640_mode)
    sw_sdcard_mode                           0x0801249d   Thumb Code    50  main.o(i.sw_sdcard_mode)
    sys_clock_set                            0x080125b1   Thumb Code   382  sys.o(i.sys_clock_set)
    sys_gpio_af_set                          0x0801273d   Thumb Code   104  sys.o(i.sys_gpio_af_set)
    sys_gpio_pin_get                         0x080127a5   Thumb Code    16  sys.o(i.sys_gpio_pin_get)
    sys_gpio_pin_set                         0x080127b5   Thumb Code    24  sys.o(i.sys_gpio_pin_set)
    sys_gpio_set                             0x080127cd   Thumb Code   222  sys.o(i.sys_gpio_set)
    sys_intx_disable                         0x080128ab   Thumb Code     4  sys.o(i.sys_intx_disable)
    sys_intx_enable                          0x080128af   Thumb Code     4  sys.o(i.sys_intx_enable)
    sys_nvic_init                            0x080128b5   Thumb Code   116  sys.o(i.sys_nvic_init)
    sys_nvic_set_vector_table                0x08012955   Thumb Code    12  sys.o(i.sys_nvic_set_vector_table)
    sys_stm32_clock_init                     0x08012965   Thumb Code    58  sys.o(i.sys_stm32_clock_init)
    text_show_font                           0x08012ad1   Thumb Code   218  text.o(i.text_show_font)
    text_show_string                         0x08012bb1   Thumb Code   198  text.o(i.text_show_string)
    usart2_init                              0x08012c79   Thumb Code   170  usart2.o(i.usart2_init)
    usart_init                               0x08012d35   Thumb Code   206  usart.o(i.usart_init)
    usmart_cmd_rec                           0x08012e15   Thumb Code   170  usmart.o(i.usmart_cmd_rec)
    usmart_exe                               0x08012ec5   Thumb Code   632  usmart.o(i.usmart_exe)
    usmart_get_aparm                         0x08013199   Thumb Code   212  usmart_str.o(i.usmart_get_aparm)
    usmart_get_cmdname                       0x0801326d   Thumb Code    54  usmart_str.o(i.usmart_get_cmdname)
    usmart_get_fname                         0x080132a5   Thumb Code   440  usmart_str.o(i.usmart_get_fname)
    usmart_get_fparam                        0x08013465   Thumb Code   262  usmart_str.o(i.usmart_get_fparam)
    usmart_get_input_string                  0x08013571   Thumb Code    30  usmart_port.o(i.usmart_get_input_string)
    usmart_get_parmpos                       0x08013599   Thumb Code    26  usmart_str.o(i.usmart_get_parmpos)
    usmart_init                              0x080135b9   Thumb Code    18  usmart.o(i.usmart_init)
    usmart_pow                               0x080135d1   Thumb Code    22  usmart_str.o(i.usmart_pow)
    usmart_scan                              0x080135e9   Thumb Code   106  usmart.o(i.usmart_scan)
    usmart_search_nextc                      0x08013691   Thumb Code    22  usmart_str.o(i.usmart_search_nextc)
    usmart_str2num                           0x080136a7   Thumb Code   262  usmart_str.o(i.usmart_str2num)
    usmart_strcmp                            0x080137ad   Thumb Code    34  usmart_str.o(i.usmart_strcmp)
    usmart_strcopy                           0x080137cf   Thumb Code    22  usmart_str.o(i.usmart_strcopy)
    usmart_strlen                            0x080137e5   Thumb Code    24  usmart_str.o(i.usmart_strlen)
    usmart_sys_cmd_exe                       0x080137fd   Thumb Code  1570  usmart.o(i.usmart_sys_cmd_exe)
    usmart_timx_get_time                     0x08013ef1   Thumb Code    56  usmart_port.o(i.usmart_timx_get_time)
    usmart_timx_init                         0x08013f31   Thumb Code    94  usmart_port.o(i.usmart_timx_init)
    usmart_timx_reset_time                   0x08013f99   Thumb Code    38  usmart_port.o(i.usmart_timx_reset_time)
    vector                                   0x08014005   Thumb Code    54  matrix.o(i.vector)
    write_addr                               0x0801403b   Thumb Code     4  usmart.o(i.write_addr)
    __aeabi_dneg                             0x080140c5   Thumb Code     0  basic.o(x$fpl$basic)
    _dneg                                    0x080140c5   Thumb Code     6  basic.o(x$fpl$basic)
    __aeabi_fneg                             0x080140cb   Thumb Code     0  basic.o(x$fpl$basic)
    _fneg                                    0x080140cb   Thumb Code     6  basic.o(x$fpl$basic)
    _dabs                                    0x080140d1   Thumb Code     6  basic.o(x$fpl$basic)
    _fabs                                    0x080140d7   Thumb Code     6  basic.o(x$fpl$basic)
    __aeabi_d2f                              0x080140dd   Thumb Code     0  d2f.o(x$fpl$d2f)
    _d2f                                     0x080140dd   Thumb Code    98  d2f.o(x$fpl$d2f)
    __aeabi_dadd                             0x08014141   Thumb Code     0  daddsub_clz.o(x$fpl$dadd)
    _dadd                                    0x08014141   Thumb Code   332  daddsub_clz.o(x$fpl$dadd)
    __fpl_dcheck_NaN1                        0x08014291   Thumb Code    10  dcheck1.o(x$fpl$dcheck1)
    __fpl_dcmp_Inf                           0x080142a1   Thumb Code    24  dcmpi.o(x$fpl$dcmpinf)
    __aeabi_ddiv                             0x080142b9   Thumb Code     0  ddiv.o(x$fpl$ddiv)
    _ddiv                                    0x080142b9   Thumb Code   552  ddiv.o(x$fpl$ddiv)
    __aeabi_cdcmpeq                          0x08014569   Thumb Code     0  deqf.o(x$fpl$deqf)
    _dcmpeq                                  0x08014569   Thumb Code   120  deqf.o(x$fpl$deqf)
    __aeabi_d2iz                             0x080145e1   Thumb Code     0  dfix.o(x$fpl$dfix)
    _dfix                                    0x080145e1   Thumb Code    94  dfix.o(x$fpl$dfix)
    __aeabi_d2uiz                            0x08014641   Thumb Code     0  dfixu.o(x$fpl$dfixu)
    _dfixu                                   0x08014641   Thumb Code    90  dfixu.o(x$fpl$dfixu)
    __aeabi_i2d                              0x0801469b   Thumb Code     0  dflt_clz.o(x$fpl$dflt)
    _dflt                                    0x0801469b   Thumb Code    46  dflt_clz.o(x$fpl$dflt)
    __aeabi_ui2d                             0x080146c9   Thumb Code     0  dflt_clz.o(x$fpl$dfltu)
    _dfltu                                   0x080146c9   Thumb Code    38  dflt_clz.o(x$fpl$dfltu)
    __aeabi_cdcmple                          0x080146f1   Thumb Code     0  dleqf.o(x$fpl$dleqf)
    _dcmple                                  0x080146f1   Thumb Code   120  dleqf.o(x$fpl$dleqf)
    __fpl_dcmple_InfNaN                      0x08014753   Thumb Code     0  dleqf.o(x$fpl$dleqf)
    __aeabi_dmul                             0x08014769   Thumb Code     0  dmul.o(x$fpl$dmul)
    _dmul                                    0x08014769   Thumb Code   332  dmul.o(x$fpl$dmul)
    __fpl_dnaninf                            0x080148bd   Thumb Code   156  dnaninf.o(x$fpl$dnaninf)
    __fpl_dretinf                            0x08014959   Thumb Code    12  dretinf.o(x$fpl$dretinf)
    __aeabi_cdrcmple                         0x08014965   Thumb Code     0  drleqf.o(x$fpl$drleqf)
    _drcmple                                 0x08014965   Thumb Code   108  drleqf.o(x$fpl$drleqf)
    __aeabi_drsub                            0x080149d1   Thumb Code     0  daddsub_clz.o(x$fpl$drsb)
    _drsb                                    0x080149d1   Thumb Code    22  daddsub_clz.o(x$fpl$drsb)
    _dsqrt                                   0x080149e9   Thumb Code   404  dsqrt_umaal.o(x$fpl$dsqrt)
    __aeabi_dsub                             0x08014b81   Thumb Code     0  daddsub_clz.o(x$fpl$dsub)
    _dsub                                    0x08014b81   Thumb Code   464  daddsub_clz.o(x$fpl$dsub)
    __aeabi_f2d                              0x08014d55   Thumb Code     0  f2d.o(x$fpl$f2d)
    _f2d                                     0x08014d55   Thumb Code    86  f2d.o(x$fpl$f2d)
    __fpl_fnaninf                            0x08014dab   Thumb Code   140  fnaninf.o(x$fpl$fnaninf)
    _fp_init                                 0x08014e37   Thumb Code    10  fpinit.o(x$fpl$fpinit)
    __fplib_config_fpu_vfp                   0x08014e3f   Thumb Code     0  fpinit.o(x$fpl$fpinit)
    __fplib_config_pureend_doubles           0x08014e3f   Thumb Code     0  fpinit.o(x$fpl$fpinit)
    __fpl_fretinf                            0x08014e41   Thumb Code    10  fretinf.o(x$fpl$fretinf)
    __fpl_return_NaN                         0x08014e4b   Thumb Code   100  retnan.o(x$fpl$retnan)
    __ARM_scalbn                             0x08014eaf   Thumb Code    92  scalbn.o(x$fpl$scalbn)
    __fpl_cmpreturn                          0x08014f0b   Thumb Code    48  trapv.o(x$fpl$trapveneer)
    __I$use$fp                               0x08014f3a   Number         0  usenofp.o(x$fpl$usenofp)
    asc2_1206                                0x08014f3a   Data        1140  lcd.o(.constdata)
    asc2_1608                                0x080153ae   Data        1520  lcd.o(.constdata)
    asc2_2412                                0x0801599e   Data        3420  lcd.o(.constdata)
    asc2_3216                                0x080166fa   Data        6080  lcd.o(.constdata)
    ov2640_uxga_init_reg_tbl                 0x08017eba   Data         356  ov2640.o(.constdata)
    ov2640_svga_init_reg_tbl                 0x0801801e   Data         354  ov2640.o(.constdata)
    ov2640_yuv422_reg_tbl                    0x08018180   Data          16  ov2640.o(.constdata)
    ov2640_jpeg_reg_tbl                      0x08018190   Data          14  ov2640.o(.constdata)
    ov2640_rgb565_reg_tbl                    0x0801819e   Data          28  ov2640.o(.constdata)
    memtblsize                               0x080181e4   Data          12  malloc.o(.constdata)
    memblksize                               0x080181f0   Data          12  malloc.o(.constdata)
    memsize                                  0x080181fc   Data          12  malloc.o(.constdata)
    FILE_TYPE_TBL                            0x08018260   Data         196  exfuns.o(.constdata)
    _aMaskTbl                                0x080185d2   Data          32  gif.o(.constdata)
    _aInterlaceOffset                        0x080185f2   Data           4  gif.o(.constdata)
    _aInterlaceYPos                          0x080185f6   Data           4  gif.o(.constdata)
    __mathlib_zero                           0x08018c40   Data           8  qnan.o(.constdata)
    Region$$Table$$Base                      0x08019034   Number         0  anon$$obj.o(Region$$Table)
    Region$$Table$$Limit                     0x08019054   Number         0  anon$$obj.o(Region$$Table)
    g_bmp_request                            0x20000000   Data           1  main.o(.data)
    g_ov_mode                                0x20000001   Data           1  main.o(.data)
    p_dcmi_line_buf                          0x20000004   Data           8  main.o(.data)
    p_jpeg_data_buf                          0x2000000c   Data           4  main.o(.data)
    g_jpeg_data_len                          0x20000010   Data           4  main.o(.data)
    SensorFlag                               0x20000014   Data           1  main.o(.data)
    CrossFlag                                0x20000015   Data           1  main.o(.data)
    TimeCount                                0x20000016   Data           1  main.o(.data)
    g_jpeg_data_ok                           0x20000017   Data           1  main.o(.data)
    __stdout                                 0x2000001c   Data           4  usart.o(.data)
    g_usart_rx_sta                           0x20000020   Data           2  usart.o(.data)
    g_point_color                            0x20000024   Data           4  lcd.o(.data)
    g_back_color                             0x20000028   Data           4  lcd.o(.data)
    g_norflash_type                          0x20000038   Data           2  norflash.o(.data)
    g_ov_frame                               0x2000003c   Data           1  dcmi.o(.data)
    dcmi_rx_callback                         0x20000040   Data           4  dcmi.o(.data)
    sys_cmd_tab                              0x20000044   Data          28  usmart.o(.data)
    usmart_nametab                           0x20000060   Data          80  usmart_config.o(.data)
    usmart_dev                               0x200000b0   Data         244  usmart_config.o(.data)
    mallco_dev                               0x200001a4   Data          36  malloc.o(.data)
    fs                                       0x200001d4   Data           8  exfuns.o(.data)
    g_gif_decoding                           0x200001dc   Data           1  gif.o(.data)
    f_jpeg                                   0x200001e0   Data           4  tjpgd.o(.data)
    jpeg_dev                                 0x200001e4   Data           4  tjpgd.o(.data)
    jpg_buffer                               0x200001e8   Data           4  tjpgd.o(.data)
    projector                                0x200001ec   Data           4  recog.o(.data)
    IMG                                      0x200001f0   Data           4  gabor.o(.data)
    IMG_imag                                 0x200001f4   Data           4  gabor.o(.data)
    Gr                                       0x200001f8   Data           4  gabor.o(.data)
    Gi                                       0x200001fc   Data           4  gabor.o(.data)
    Tmp_1                                    0x20000200   Data           4  gabor.o(.data)
    Tmp_2                                    0x20000204   Data           4  gabor.o(.data)
    F_1                                      0x20000208   Data           4  gabor.o(.data)
    F_2                                      0x2000020c   Data           4  gabor.o(.data)
    G_real                                   0x20000210   Data           4  gabor.o(.data)
    G_imag                                   0x20000214   Data           4  gabor.o(.data)
    F_real                                   0x20000218   Data           4  gabor.o(.data)
    F_imag                                   0x2000021c   Data           4  gabor.o(.data)
    Fea                                      0x20000220   Data           4  gabor.o(.data)
    img                                      0x20000224   Data           4  gabor.o(.data)
    xs                                       0x20000228   Data           4  gabor.o(.data)
    ys                                       0x2000022c   Data           4  gabor.o(.data)
    R                                        0x20000230   Data           4  matrix.o(.data)
    I                                        0x20000234   Data           4  matrix.o(.data)
    Fr                                       0x20000238   Data           4  matrix.o(.data)
    Fi                                       0x2000023c   Data           4  matrix.o(.data)
    T                                        0x20000240   Data           4  matrix.o(.data)
    tmp1                                     0x20000244   Data           4  matrix.o(.data)
    tmp2                                     0x20000248   Data           4  matrix.o(.data)
    g_usart_rx_buf                           0x2000024c   Data         200  usart.o(.bss)
    lcddev                                   0x20000314   Data          14  lcd.o(.bss)
    g_sd_card_info                           0x20000348   Data          88  sdio_sdcard.o(.bss)
    g_norflash_buf                           0x200003a0   Data        4096  norflash.o(.bss)
    fattester                                0x2001bcc0   Data         384  fattester.o(.bss)
    ftinfo                                   0x2001be40   Data          33  fonts.o(.bss)
    picinfo                                  0x2001be64   Data          40  piclib.o(.bss)
    pic_phy                                  0x2001be8c   Data          20  piclib.o(.bss)
    model                                    0x2001bea0   Data          16  recog.o(.bss)
    __libspace_start                         0x2001beb0   Data          96  libspace.o(.bss)
    __temporary_stack_top$libspace           0x2001bf10   Data           0  libspace.o(.bss)



==============================================================================

Memory Map of the image

  Image Entry point : 0x08000189

  Load Region LR_IROM1 (Base: 0x08000000, Size: 0x000192a0, Max: 0x00100000, ABSOLUTE, COMPRESSED[0x000190f0])

    Execution Region ER_IROM1 (Exec base: 0x08000000, Load base: 0x08000000, Size: 0x00019054, Max: 0x00100000, ABSOLUTE)

    Exec Addr    Load Addr    Size         Type   Attr      Idx    E Section Name        Object

    0x08000000   0x08000000   0x00000188   Data   RO            3    RESET               startup_stm32f407xx.o
    0x08000188   0x08000188   0x00000008   Code   RO         3577  * !!!main             c_w.l(__main.o)
    0x08000190   0x08000190   0x00000034   Code   RO         3980    !!!scatter          c_w.l(__scatter.o)
    0x080001c4   0x080001c4   0x0000005a   Code   RO         3978    !!dczerorl2         c_w.l(__dczerorl2.o)
    0x0800021e   0x0800021e   0x00000002   PAD
    0x08000220   0x08000220   0x0000001c   Code   RO         3982    !!handler_zi        c_w.l(__scatter_zi.o)
    0x0800023c   0x0800023c   0x00000000   Code   RO         3551    .ARM.Collect$$_printf_percent$$00000000  c_w.l(_printf_percent.o)
    0x0800023c   0x0800023c   0x00000006   Code   RO         3549    .ARM.Collect$$_printf_percent$$00000009  c_w.l(_printf_d.o)
    0x08000242   0x08000242   0x00000006   Code   RO         3550    .ARM.Collect$$_printf_percent$$0000000A  c_w.l(_printf_u.o)
    0x08000248   0x08000248   0x00000006   Code   RO         3548    .ARM.Collect$$_printf_percent$$0000000C  c_w.l(_printf_x.o)
    0x0800024e   0x0800024e   0x00000006   Code   RO         3546    .ARM.Collect$$_printf_percent$$00000013  c_w.l(_printf_c.o)
    0x08000254   0x08000254   0x00000006   Code   RO         3547    .ARM.Collect$$_printf_percent$$00000014  c_w.l(_printf_s.o)
    0x0800025a   0x0800025a   0x00000004   Code   RO         3740    .ARM.Collect$$_printf_percent$$00000017  c_w.l(_printf_percent_end.o)
    0x0800025e   0x0800025e   0x00000002   Code   RO         3854    .ARM.Collect$$libinit$$00000000  c_w.l(libinit.o)
    0x08000260   0x08000260   0x00000004   Code   RO         3865    .ARM.Collect$$libinit$$00000001  c_w.l(libinit2.o)
    0x08000264   0x08000264   0x00000000   Code   RO         3868    .ARM.Collect$$libinit$$00000004  c_w.l(libinit2.o)
    0x08000264   0x08000264   0x00000000   Code   RO         3871    .ARM.Collect$$libinit$$0000000A  c_w.l(libinit2.o)
    0x08000264   0x08000264   0x00000000   Code   RO         3873    .ARM.Collect$$libinit$$0000000C  c_w.l(libinit2.o)
    0x08000264   0x08000264   0x00000000   Code   RO         3875    .ARM.Collect$$libinit$$0000000E  c_w.l(libinit2.o)
    0x08000264   0x08000264   0x00000000   Code   RO         3878    .ARM.Collect$$libinit$$00000011  c_w.l(libinit2.o)
    0x08000264   0x08000264   0x00000000   Code   RO         3880    .ARM.Collect$$libinit$$00000013  c_w.l(libinit2.o)
    0x08000264   0x08000264   0x00000000   Code   RO         3882    .ARM.Collect$$libinit$$00000015  c_w.l(libinit2.o)
    0x08000264   0x08000264   0x00000000   Code   RO         3884    .ARM.Collect$$libinit$$00000017  c_w.l(libinit2.o)
    0x08000264   0x08000264   0x00000000   Code   RO         3886    .ARM.Collect$$libinit$$00000019  c_w.l(libinit2.o)
    0x08000264   0x08000264   0x00000000   Code   RO         3888    .ARM.Collect$$libinit$$0000001B  c_w.l(libinit2.o)
    0x08000264   0x08000264   0x00000000   Code   RO         3890    .ARM.Collect$$libinit$$0000001D  c_w.l(libinit2.o)
    0x08000264   0x08000264   0x00000000   Code   RO         3892    .ARM.Collect$$libinit$$0000001F  c_w.l(libinit2.o)
    0x08000264   0x08000264   0x00000000   Code   RO         3894    .ARM.Collect$$libinit$$00000021  c_w.l(libinit2.o)
    0x08000264   0x08000264   0x00000000   Code   RO         3896    .ARM.Collect$$libinit$$00000023  c_w.l(libinit2.o)
    0x08000264   0x08000264   0x00000000   Code   RO         3898    .ARM.Collect$$libinit$$00000025  c_w.l(libinit2.o)
    0x08000264   0x08000264   0x00000000   Code   RO         3902    .ARM.Collect$$libinit$$0000002C  c_w.l(libinit2.o)
    0x08000264   0x08000264   0x00000000   Code   RO         3904    .ARM.Collect$$libinit$$0000002E  c_w.l(libinit2.o)
    0x08000264   0x08000264   0x00000000   Code   RO         3906    .ARM.Collect$$libinit$$00000030  c_w.l(libinit2.o)
    0x08000264   0x08000264   0x00000000   Code   RO         3908    .ARM.Collect$$libinit$$00000032  c_w.l(libinit2.o)
    0x08000264   0x08000264   0x00000002   Code   RO         3909    .ARM.Collect$$libinit$$00000033  c_w.l(libinit2.o)
    0x08000266   0x08000266   0x00000002   Code   RO         3935    .ARM.Collect$$libshutdown$$00000000  c_w.l(libshutdown.o)
    0x08000268   0x08000268   0x00000000   Code   RO         3959    .ARM.Collect$$libshutdown$$00000002  c_w.l(libshutdown2.o)
    0x08000268   0x08000268   0x00000000   Code   RO         3961    .ARM.Collect$$libshutdown$$00000004  c_w.l(libshutdown2.o)
    0x08000268   0x08000268   0x00000000   Code   RO         3963    .ARM.Collect$$libshutdown$$00000006  c_w.l(libshutdown2.o)
    0x08000268   0x08000268   0x00000000   Code   RO         3966    .ARM.Collect$$libshutdown$$00000009  c_w.l(libshutdown2.o)
    0x08000268   0x08000268   0x00000000   Code   RO         3969    .ARM.Collect$$libshutdown$$0000000C  c_w.l(libshutdown2.o)
    0x08000268   0x08000268   0x00000000   Code   RO         3971    .ARM.Collect$$libshutdown$$0000000E  c_w.l(libshutdown2.o)
    0x08000268   0x08000268   0x00000000   Code   RO         3974    .ARM.Collect$$libshutdown$$00000011  c_w.l(libshutdown2.o)
    0x08000268   0x08000268   0x00000002   Code   RO         3975    .ARM.Collect$$libshutdown$$00000012  c_w.l(libshutdown2.o)
    0x0800026a   0x0800026a   0x00000000   Code   RO         3721    .ARM.Collect$$rtentry$$00000000  c_w.l(__rtentry.o)
    0x0800026a   0x0800026a   0x00000000   Code   RO         3807    .ARM.Collect$$rtentry$$00000002  c_w.l(__rtentry2.o)
    0x0800026a   0x0800026a   0x00000006   Code   RO         3819    .ARM.Collect$$rtentry$$00000004  c_w.l(__rtentry4.o)
    0x08000270   0x08000270   0x00000000   Code   RO         3809    .ARM.Collect$$rtentry$$00000009  c_w.l(__rtentry2.o)
    0x08000270   0x08000270   0x00000004   Code   RO         3810    .ARM.Collect$$rtentry$$0000000A  c_w.l(__rtentry2.o)
    0x08000274   0x08000274   0x00000000   Code   RO         3812    .ARM.Collect$$rtentry$$0000000C  c_w.l(__rtentry2.o)
    0x08000274   0x08000274   0x00000008   Code   RO         3813    .ARM.Collect$$rtentry$$0000000D  c_w.l(__rtentry2.o)
    0x0800027c   0x0800027c   0x00000002   Code   RO         3857    .ARM.Collect$$rtexit$$00000000  c_w.l(rtexit.o)
    0x0800027e   0x0800027e   0x00000000   Code   RO         3913    .ARM.Collect$$rtexit$$00000002  c_w.l(rtexit2.o)
    0x0800027e   0x0800027e   0x00000004   Code   RO         3914    .ARM.Collect$$rtexit$$00000003  c_w.l(rtexit2.o)
    0x08000282   0x08000282   0x00000006   Code   RO         3915    .ARM.Collect$$rtexit$$00000004  c_w.l(rtexit2.o)
    0x08000288   0x08000288   0x00000044   Code   RO            4    .text               startup_stm32f407xx.o
    0x080002cc   0x080002cc   0x00000002   Code   RO         3481    .text               c_w.l(use_no_semi_2.o)
    0x080002ce   0x080002ce   0x000000ee   Code   RO         3483    .text               c_w.l(lludivv7m.o)
    0x080003bc   0x080003bc   0x00000048   Code   RO         3485    .text               c_w.l(llsdiv.o)
    0x08000404   0x08000404   0x00000018   Code   RO         3491    .text               c_w.l(noretval__2printf.o)
    0x0800041c   0x0800041c   0x00000028   Code   RO         3493    .text               c_w.l(noretval__2sprintf.o)
    0x08000444   0x08000444   0x0000004e   Code   RO         3497    .text               c_w.l(_printf_pad.o)
    0x08000492   0x08000492   0x00000052   Code   RO         3499    .text               c_w.l(_printf_str.o)
    0x080004e4   0x080004e4   0x00000078   Code   RO         3501    .text               c_w.l(_printf_dec.o)
    0x0800055c   0x0800055c   0x00000058   Code   RO         3508    .text               c_w.l(_printf_hex_int.o)
    0x080005b4   0x080005b4   0x00000188   Code   RO         3543    .text               c_w.l(__printf_flags_ss_wp.o)
    0x0800073c   0x0800073c   0x00000014   Code   RO         3553    .text               c_w.l(strchr.o)
    0x08000750   0x08000750   0x00000058   Code   RO         3555    .text               c_w.l(memcmp.o)
    0x080007a8   0x080007a8   0x00000048   Code   RO         3557    .text               c_w.l(strcpy.o)
    0x080007f0   0x080007f0   0x0000003e   Code   RO         3559    .text               c_w.l(strlen.o)
    0x0800082e   0x0800082e   0x0000008a   Code   RO         3563    .text               c_w.l(rt_memcpy_v6.o)
    0x080008b8   0x080008b8   0x00000064   Code   RO         3565    .text               c_w.l(rt_memcpy_w.o)
    0x0800091c   0x0800091c   0x00000010   Code   RO         3567    .text               c_w.l(aeabi_memset.o)
    0x0800092c   0x0800092c   0x00000044   Code   RO         3569    .text               c_w.l(rt_memclr.o)
    0x08000970   0x08000970   0x0000004e   Code   RO         3571    .text               c_w.l(rt_memclr_w.o)
    0x080009be   0x080009be   0x00000002   PAD
    0x080009c0   0x080009c0   0x00000080   Code   RO         3573    .text               c_w.l(strcmpv7m.o)
    0x08000a40   0x08000a40   0x00000006   Code   RO         3575    .text               c_w.l(heapauxi.o)
    0x08000a46   0x08000a46   0x00000002   Code   RO         3719    .text               c_w.l(use_no_semi.o)
    0x08000a48   0x08000a48   0x00000016   Code   RO         3728    .text               c_w.l(_rserrno.o)
    0x08000a5e   0x08000a5e   0x000000b2   Code   RO         3730    .text               c_w.l(_printf_intcommon.o)
    0x08000b10   0x08000b10   0x00000030   Code   RO         3732    .text               c_w.l(_printf_char_common.o)
    0x08000b40   0x08000b40   0x0000000a   Code   RO         3734    .text               c_w.l(_sputc.o)
    0x08000b4a   0x08000b4a   0x0000002c   Code   RO         3736    .text               c_w.l(_printf_char.o)
    0x08000b76   0x08000b76   0x00000002   PAD
    0x08000b78   0x08000b78   0x00000024   Code   RO         3738    .text               c_w.l(_printf_char_file.o)
    0x08000b9c   0x08000b9c   0x00000008   Code   RO         3826    .text               c_w.l(rt_errno_addr_intlibspace.o)
    0x08000ba4   0x08000ba4   0x00000008   Code   RO         3830    .text               c_w.l(ferror.o)
    0x08000bac   0x08000bac   0x00000008   Code   RO         3838    .text               c_w.l(libspace.o)
    0x08000bb4   0x08000bb4   0x0000004a   Code   RO         3841    .text               c_w.l(sys_stackheap_outer.o)
    0x08000bfe   0x08000bfe   0x00000012   Code   RO         3843    .text               c_w.l(exit.o)
    0x08000c10   0x08000c10   0x00000092   Code   RO         3362    i.CreateMatrix      ATKFREC.lib(matrix.o)
    0x08000ca2   0x08000ca2   0x00000002   PAD
    0x08000ca4   0x08000ca4   0x00000044   Code   RO         1489    i.DCMI_IRQHandler   dcmi.o
    0x08000ce8   0x08000ce8   0x0000002c   Code   RO         1490    i.DMA2_Stream1_IRQHandler  dcmi.o
    0x08000d14   0x08000d14   0x00000034   Code   RO         3363    i.FreeMatrix        ATKFREC.lib(matrix.o)
    0x08000d48   0x08000d48   0x00000910   Code   RO         3310    i.Gabor             ATKFREC.lib(gabor.o)
    0x08001658   0x08001658   0x00000214   Code   RO         3311    i.GaborFilterFinialize  ATKFREC.lib(gabor.o)
    0x0800186c   0x0800186c   0x00000308   Code   RO         3312    i.GaborFilterInitialize  ATKFREC.lib(gabor.o)
    0x08001b74   0x08001b74   0x0000046a   Code   RO         3313    i.GaborFilteredImg  ATKFREC.lib(gabor.o)
    0x08001fde   0x08001fde   0x000000c6   Code   RO         3364    i.Mat_Copy          ATKFREC.lib(matrix.o)
    0x080020a4   0x080020a4   0x00000100   Code   RO         3365    i.Mat_FFT2          ATKFREC.lib(matrix.o)
    0x080021a4   0x080021a4   0x000000b8   Code   RO         3366    i.Mat_FFT_Mem_Free  ATKFREC.lib(matrix.o)
    0x0800225c   0x0800225c   0x000000d0   Code   RO         3367    i.Mat_FFT_Mem_Init  ATKFREC.lib(matrix.o)
    0x0800232c   0x0800232c   0x00000124   Code   RO         3368    i.Mat_IFFT2         ATKFREC.lib(matrix.o)
    0x08002450   0x08002450   0x0000004e   Code   RO         3369    i.Mat_Product       ATKFREC.lib(matrix.o)
    0x0800249e   0x0800249e   0x0000004e   Code   RO         3370    i.Mat_Substract     ATKFREC.lib(matrix.o)
    0x080024ec   0x080024ec   0x0000004e   Code   RO         3371    i.Mat_Sum           ATKFREC.lib(matrix.o)
    0x0800253a   0x0800253a   0x00000002   PAD
    0x0800253c   0x0800253c   0x00000030   Code   RO         3372    i.Mat_Zeros         ATKFREC.lib(matrix.o)
    0x0800256c   0x0800256c   0x0000007a   Code   RO          274    i.SYN_FrameInfo     syn6288.o
    0x080025e6   0x080025e6   0x00000002   PAD
    0x080025e8   0x080025e8   0x0000002c   Code   RO           13    i.SensorGPIOConfig  main.o
    0x08002614   0x08002614   0x00000028   Code   RO           14    i.SensorStatus      main.o
    0x0800263c   0x0800263c   0x0000003c   Code   RO         1699    i.TIM4_IRQHandler   usmart_port.o
    0x08002678   0x08002678   0x00000044   Code   RO         1230    i.TIM6_DAC_IRQHandler  btim.o
    0x080026bc   0x080026bc   0x00000080   Code   RO          498    i.USART1_IRQHandler  usart.o
    0x0800273c   0x0800273c   0x0000001c   Code   RO         1261    i.USART2_SendData   usart2.o
    0x08002758   0x08002758   0x0000001c   Code   RO         1262    i.USART2_SendString  usart2.o
    0x08002774   0x08002774   0x00000030   Code   RO         3784    i.__ARM_fpclassify  m_wm.l(fpclassify.o)
    0x080027a4   0x080027a4   0x00000004   PAD
    0x080027a8   0x080027a8   0x00000118   Code   RO         3611    i.__hardfp_ceil     m_wm.l(ceil.o)
    0x080028c0   0x080028c0   0x000000c8   Code   RO         3617    i.__hardfp_cos      m_wm.l(cos.o)
    0x08002988   0x08002988   0x00000358   Code   RO         3629    i.__hardfp_exp      m_wm.l(exp.o)
    0x08002ce0   0x08002ce0   0x000003c4   Code   RO         3643    i.__hardfp_log      m_wm.l(log.o)
    0x080030a4   0x080030a4   0x00000004   PAD
    0x080030a8   0x080030a8   0x00000130   Code   RO         3657    i.__hardfp_log10    m_wm.l(log10.o)
    0x080031d8   0x080031d8   0x00000050   Code   RO         3373    i.__hardfp_log2     ATKFREC.lib(matrix.o)
    0x08003228   0x08003228   0x00000c50   Code   RO         3669    i.__hardfp_pow      m_wm.l(pow.o)
    0x08003e78   0x08003e78   0x000000c8   Code   RO         3683    i.__hardfp_sin      m_wm.l(sin.o)
    0x08003f40   0x08003f40   0x0000007a   Code   RO         3695    i.__hardfp_sqrt     m_wm.l(sqrt.o)
    0x08003fba   0x08003fba   0x00000006   PAD
    0x08003fc0   0x08003fc0   0x00000080   Code   RO         3707    i.__hardfp_tan      m_wm.l(tan.o)
    0x08004040   0x08004040   0x00000438   Code   RO         3789    i.__ieee754_rem_pio2  m_wm.l(rred.o)
    0x08004478   0x08004478   0x00000170   Code   RO         3761    i.__kernel_cos      m_wm.l(cos_i.o)
    0x080045e8   0x080045e8   0x000000f8   Code   RO         3786    i.__kernel_poly     m_wm.l(poly.o)
    0x080046e0   0x080046e0   0x00000130   Code   RO         3794    i.__kernel_sin      m_wm.l(sin_i.o)
    0x08004810   0x08004810   0x00000350   Code   RO         3800    i.__kernel_tan      m_wm.l(tan_i.o)
    0x08004b60   0x08004b60   0x00000030   Code   RO         3764    i.__mathlib_dbl_divzero  m_wm.l(dunder.o)
    0x08004b90   0x08004b90   0x00000014   Code   RO         3765    i.__mathlib_dbl_infnan  m_wm.l(dunder.o)
    0x08004ba4   0x08004ba4   0x00000014   Code   RO         3766    i.__mathlib_dbl_infnan2  m_wm.l(dunder.o)
    0x08004bb8   0x08004bb8   0x00000020   Code   RO         3767    i.__mathlib_dbl_invalid  m_wm.l(dunder.o)
    0x08004bd8   0x08004bd8   0x00000020   Code   RO         3768    i.__mathlib_dbl_overflow  m_wm.l(dunder.o)
    0x08004bf8   0x08004bf8   0x00000020   Code   RO         3770    i.__mathlib_dbl_underflow  m_wm.l(dunder.o)
    0x08004c18   0x08004c18   0x0000000e   Code   RO         3536    i._is_digit         c_w.l(__printf_wp.o)
    0x08004c26   0x08004c26   0x00000004   Code   RO          500    i._sys_exit         usart.o
    0x08004c2a   0x08004c2a   0x00000002   PAD
    0x08004c2c   0x08004c2c   0x00000030   Code   RO          276    i.alarm_say         syn6288.o
    0x08004c5c   0x08004c5c   0x00000022   Code   RO         3049    i.alloc_pool        tjpgd.o
    0x08004c7e   0x08004c7e   0x00000002   PAD
    0x08004c80   0x08004c80   0x00000118   Code   RO         3229    i.atk_frec_add_a_face  ATKFREC.lib(recog.o)
    0x08004d98   0x08004d98   0x00000074   Code   RO         3230    i.atk_frec_binaryzation  ATKFREC.lib(recog.o)
    0x08004e0c   0x08004e0c   0x0000004c   Code   RO         3171    i.atk_frec_delete_data  atk_frec.o
    0x08004e58   0x08004e58   0x00000048   Code   RO         3231    i.atk_frec_destroy  ATKFREC.lib(recog.o)
    0x08004ea0   0x08004ea0   0x0000000e   Code   RO         3172    i.atk_frec_free     atk_frec.o
    0x08004eae   0x08004eae   0x00000002   PAD
    0x08004eb0   0x08004eb0   0x00000090   Code   RO         3232    i.atk_frec_initialization  ATKFREC.lib(recog.o)
    0x08004f40   0x08004f40   0x0000005c   Code   RO         3233    i.atk_frec_load_data_model  ATKFREC.lib(recog.o)
    0x08004f9c   0x08004f9c   0x0000000e   Code   RO         3173    i.atk_frec_malloc   atk_frec.o
    0x08004faa   0x08004faa   0x00000014   Code   RO         3174    i.atk_frec_memset   atk_frec.o
    0x08004fbe   0x08004fbe   0x00000002   PAD
    0x08004fc0   0x08004fc0   0x000000a4   Code   RO         3234    i.atk_frec_normalization  ATKFREC.lib(recog.o)
    0x08005064   0x08005064   0x00000094   Code   RO         3175    i.atk_frec_read_data  atk_frec.o
    0x080050f8   0x080050f8   0x000000e0   Code   RO         3235    i.atk_frec_recognition_face  ATKFREC.lib(recog.o)
    0x080051d8   0x080051d8   0x00000098   Code   RO         3176    i.atk_frec_save_data  atk_frec.o
    0x08005270   0x08005270   0x0000003c   Code   RO         1206    i.beep_init         beep.o
    0x080052ac   0x080052ac   0x0000008a   Code   RO         3050    i.bitext            tjpgd.o
    0x08005336   0x08005336   0x000001ae   Code   RO         3051    i.block_idct        tjpgd.o
    0x080054e4   0x080054e4   0x000001f0   Code   RO         2828    i.bmp_encode        bmp.o
    0x080056d4   0x080056d4   0x00000048   Code   RO         1231    i.btim_timx_int_init  btim.o
    0x0800571c   0x0800571c   0x00000098   Code   RO         3236    i.calcMoveDistMat   ATKFREC.lib(recog.o)
    0x080057b4   0x080057b4   0x000002bc   Code   RO         3237    i.calcOffsetDist    ATKFREC.lib(recog.o)
    0x08005a70   0x08005a70   0x0000008a   Code   RO         1965    i.change_bitmap     ff.o
    0x08005afa   0x08005afa   0x00000002   PAD
    0x08005afc   0x08005afc   0x00000104   Code   RO         1966    i.check_fs          ff.o
    0x08005c00   0x08005c00   0x00000062   Code   RO         1967    i.clmt_clust        ff.o
    0x08005c62   0x08005c62   0x0000000a   Code   RO         1561    i.close_door        pwmdac.o
    0x08005c6c   0x08005c6c   0x0000001a   Code   RO         1968    i.clst2sect         ff.o
    0x08005c86   0x08005c86   0x00000002   PAD
    0x08005c88   0x08005c88   0x00000098   Code   RO         1969    i.cmp_lfn           ff.o
    0x08005d20   0x08005d20   0x000001cc   Code   RO         1970    i.create_chain      ff.o
    0x08005eec   0x08005eec   0x000001c0   Code   RO         3052    i.create_huffman_tbl  tjpgd.o
    0x080060ac   0x080060ac   0x0000025c   Code   RO         1971    i.create_name       ff.o
    0x08006308   0x08006308   0x00000090   Code   RO         1973    i.create_xdir       ff.o
    0x08006398   0x08006398   0x000000c8   Code   RO           16    i.cross             main.o
    0x08006460   0x08006460   0x00000034   Code   RO         1974    i.dbc_1st           ff.o
    0x08006494   0x08006494   0x00000048   Code   RO         1975    i.dbc_2nd           ff.o
    0x080064dc   0x080064dc   0x000000a4   Code   RO         1492    i.dcmi_dma_init     dcmi.o
    0x08006580   0x08006580   0x00000160   Code   RO         1493    i.dcmi_init         dcmi.o
    0x080066e0   0x080066e0   0x00000030   Code   RO         1495    i.dcmi_start        dcmi.o
    0x08006710   0x08006710   0x00000030   Code   RO         1496    i.dcmi_stop         dcmi.o
    0x08006740   0x08006740   0x0000002c   Code   RO          344    i.delay_init        delay.o
    0x0800676c   0x0800676c   0x00000012   Code   RO          345    i.delay_ms          delay.o
    0x0800677e   0x0800677e   0x00000002   PAD
    0x08006780   0x08006780   0x00000048   Code   RO          346    i.delay_us          delay.o
    0x080067c8   0x080067c8   0x0000007c   Code   RO         1976    i.dir_alloc         ff.o
    0x08006844   0x08006844   0x000000c2   Code   RO         1977    i.dir_clear         ff.o
    0x08006906   0x08006906   0x000001a8   Code   RO         1978    i.dir_find          ff.o
    0x08006aae   0x08006aae   0x000000e0   Code   RO         1979    i.dir_next          ff.o
    0x08006b8e   0x08006b8e   0x00000102   Code   RO         1980    i.dir_read          ff.o
    0x08006c90   0x08006c90   0x0000022a   Code   RO         1981    i.dir_register      ff.o
    0x08006eba   0x08006eba   0x00000072   Code   RO         1982    i.dir_remove        ff.o
    0x08006f2c   0x08006f2c   0x000000aa   Code   RO         1983    i.dir_sdi           ff.o
    0x08006fd6   0x08006fd6   0x0000002c   Code   RO         1913    i.disk_initialize   diskio.o
    0x08007002   0x08007002   0x00000002   PAD
    0x08007004   0x08007004   0x000000b0   Code   RO         1914    i.disk_ioctl        diskio.o
    0x080070b4   0x080070b4   0x0000007e   Code   RO         1915    i.disk_read         diskio.o
    0x08007132   0x08007132   0x00000006   Code   RO         1916    i.disk_status       diskio.o
    0x08007138   0x08007138   0x0000007e   Code   RO         1917    i.disk_write        diskio.o
    0x080071b6   0x080071b6   0x00000002   PAD
    0x080071b8   0x080071b8   0x0000002c   Code   RO          277    i.error_say         syn6288.o
    0x080071e4   0x080071e4   0x0000001a   Code   RO         2454    i.exfuns_char_upper  exfuns.o
    0x080071fe   0x080071fe   0x00000002   PAD
    0x08007200   0x08007200   0x000000c0   Code   RO         2456    i.exfuns_file_type  exfuns.o
    0x080072c0   0x080072c0   0x00000044   Code   RO         2461    i.exfuns_init       exfuns.o
    0x08007304   0x08007304   0x00000026   Code   RO         1984    i.f_close           ff.o
    0x0800732a   0x0800732a   0x0000046e   Code   RO         1989    i.f_lseek           ff.o
    0x08007798   0x08007798   0x000001a2   Code   RO         1990    i.f_mkdir           ff.o
    0x0800793a   0x0800793a   0x00000002   PAD
    0x0800793c   0x0800793c   0x00000054   Code   RO         1992    i.f_mount           ff.o
    0x08007990   0x08007990   0x00000312   Code   RO         1993    i.f_open            ff.o
    0x08007ca2   0x08007ca2   0x000000b8   Code   RO         1994    i.f_opendir         ff.o
    0x08007d5a   0x08007d5a   0x00000228   Code   RO         1998    i.f_read            ff.o
    0x08007f82   0x08007f82   0x00000070   Code   RO         1999    i.f_readdir         ff.o
    0x08007ff2   0x08007ff2   0x000001a8   Code   RO         2003    i.f_sync            ff.o
    0x0800819a   0x0800819a   0x000000fc   Code   RO         2005    i.f_unlink          ff.o
    0x08008296   0x08008296   0x00000284   Code   RO         2006    i.f_write           ff.o
    0x0800851a   0x0800851a   0x00000018   Code   RO         3780    i.fabs              m_wm.l(fabs.o)
    0x08008532   0x08008532   0x0000000e   Code   RO         2418    i.ff_memalloc       ffsystem.o
    0x08008540   0x08008540   0x0000000e   Code   RO         2419    i.ff_memfree        ffsystem.o
    0x0800854e   0x0800854e   0x00000002   PAD
    0x08008550   0x08008550   0x00000088   Code   RO         2698    i.ff_oem2uni        myffunicode.o
    0x080085d8   0x080085d8   0x00000084   Code   RO         2699    i.ff_uni2oem        myffunicode.o
    0x0800865c   0x0800865c   0x000000b0   Code   RO         2700    i.ff_wtoupper       myffunicode.o
    0x0800870c   0x0800870c   0x00000036   Code   RO         2007    i.fill_first_frag   ff.o
    0x08008742   0x08008742   0x00000044   Code   RO         2008    i.fill_last_frag    ff.o
    0x08008786   0x08008786   0x000000a4   Code   RO         2009    i.find_bitmap       ff.o
    0x0800882a   0x0800882a   0x00000078   Code   RO         2010    i.find_volume       ff.o
    0x080088a2   0x080088a2   0x000000c4   Code   RO         2011    i.follow_path       ff.o
    0x08008966   0x08008966   0x00000002   PAD
    0x08008968   0x08008968   0x00000040   Code   RO         2735    i.fonts_init        fonts.o
    0x080089a8   0x080089a8   0x00000350   Code   RO         3374    i.four1             ATKFREC.lib(matrix.o)
    0x08008cf8   0x08008cf8   0x0000016c   Code   RO         3375    i.four2             ATKFREC.lib(matrix.o)
    0x08008e64   0x08008e64   0x0000001c   Code   RO          502    i.fputc             usart.o
    0x08008e80   0x08008e80   0x0000009e   Code   RO          247    i.frec_get_image_data  face_recognition.o
    0x08008f1e   0x08008f1e   0x00000042   Code   RO         3376    i.free_matrix       ATKFREC.lib(matrix.o)
    0x08008f60   0x08008f60   0x00000012   Code   RO         3377    i.free_vector       ATKFREC.lib(matrix.o)
    0x08008f72   0x08008f72   0x00000002   PAD
    0x08008f74   0x08008f74   0x000000d4   Code   RO         2012    i.gen_numname       ff.o
    0x08009048   0x08009048   0x00000194   Code   RO         2013    i.get_fat           ff.o
    0x080091dc   0x080091dc   0x00000004   Code   RO         2420    i.get_fattime       ffsystem.o
    0x080091e0   0x080091e0   0x0000027a   Code   RO         2014    i.get_fileinfo      ff.o
    0x0800945a   0x0800945a   0x0000004e   Code   RO         2015    i.get_ldnumber      ff.o
    0x080094a8   0x080094a8   0x00000058   Code   RO         2867    i.gif_check_head    gif.o
    0x08009500   0x08009500   0x000001f4   Code   RO         2868    i.gif_clear2bkcolor  gif.o
    0x080096f4   0x080096f4   0x0000012c   Code   RO         2869    i.gif_decode        gif.o
    0x08009820   0x08009820   0x00000218   Code   RO         2870    i.gif_dispimage     gif.o
    0x08009a38   0x08009a38   0x00000158   Code   RO         2871    i.gif_drawimage     gif.o
    0x08009b90   0x08009b90   0x00000068   Code   RO         2872    i.gif_getdatablock  gif.o
    0x08009bf8   0x08009bf8   0x00000046   Code   RO         2873    i.gif_getinfo       gif.o
    0x08009c3e   0x08009c3e   0x00000358   Code   RO         2874    i.gif_getnextbyte   gif.o
    0x08009f96   0x08009f96   0x00000002   PAD
    0x08009f98   0x08009f98   0x000001c8   Code   RO         2875    i.gif_getnextcode   gif.o
    0x0800a160   0x0800a160   0x0000001c   Code   RO         2876    i.gif_getrgb565     gif.o
    0x0800a17c   0x0800a17c   0x00000098   Code   RO         2877    i.gif_initlzw       gif.o
    0x0800a214   0x0800a214   0x00000040   Code   RO         2879    i.gif_readcolortbl  gif.o
    0x0800a254   0x0800a254   0x000000a0   Code   RO         2880    i.gif_readextension  gif.o
    0x0800a2f4   0x0800a2f4   0x00000026   Code   RO         2881    i.gif_recovergctbl  gif.o
    0x0800a31a   0x0800a31a   0x00000026   Code   RO         2882    i.gif_savegctbl     gif.o
    0x0800a340   0x0800a340   0x00000110   Code   RO         3053    i.huffext           tjpgd.o
    0x0800a450   0x0800a450   0x00000032   Code   RO         2016    i.init_alloc_info   ff.o
    0x0800a482   0x0800a482   0x00000084   Code   RO         3054    i.jd_decomp         tjpgd.o
    0x0800a506   0x0800a506   0x00000002   PAD
    0x0800a508   0x0800a508   0x000002bc   Code   RO         3055    i.jd_prepare        tjpgd.o
    0x0800a7c4   0x0800a7c4   0x000000e0   Code   RO           17    i.jpeg_data_process  main.o
    0x0800a8a4   0x0800a8a4   0x00000020   Code   RO         3056    i.jpeg_freeall      tjpgd.o
    0x0800a8c4   0x0800a8c4   0x0000002e   Code   RO         3057    i.jpeg_in_func      tjpgd.o
    0x0800a8f2   0x0800a8f2   0x00000002   PAD
    0x0800a8f4   0x0800a8f4   0x00000034   Code   RO         3058    i.jpeg_mallocall    tjpgd.o
    0x0800a928   0x0800a928   0x0000003c   Code   RO         3059    i.jpeg_out_func_fill  tjpgd.o
    0x0800a964   0x0800a964   0x000000a8   Code   RO         3060    i.jpeg_out_func_point  tjpgd.o
    0x0800aa0c   0x0800aa0c   0x000000c4   Code   RO         3061    i.jpg_decode        tjpgd.o
    0x0800aad0   0x0800aad0   0x00000094   Code   RO          836    i.key_init          key.o
    0x0800ab64   0x0800ab64   0x000000c8   Code   RO          837    i.key_scan          key.o
    0x0800ac2c   0x0800ac2c   0x00000034   Code   RO          587    i.lcd_clear         lcd.o
    0x0800ac60   0x0800ac60   0x00000060   Code   RO          588    i.lcd_color_fill    lcd.o
    0x0800acc0   0x0800acc0   0x0000016c   Code   RO          589    i.lcd_display_dir   lcd.o
    0x0800ae2c   0x0800ae2c   0x00000038   Code   RO          593    i.lcd_draw_hline    lcd.o
    0x0800ae64   0x0800ae64   0x00000020   Code   RO          595    i.lcd_draw_point    lcd.o
    0x0800ae84   0x0800ae84   0x0000022c   Code   RO          597    i.lcd_ex_ili9341_reginit  lcd.o
    0x0800b0b0   0x0800b0b0   0x00000340   Code   RO          598    i.lcd_ex_ili9806_reginit  lcd.o
    0x0800b3f0   0x0800b3f0   0x00000ef2   Code   RO          599    i.lcd_ex_nt35310_reginit  lcd.o
    0x0800c2e2   0x0800c2e2   0x00000efc   Code   RO          600    i.lcd_ex_nt35510_reginit  lcd.o
    0x0800d1de   0x0800d1de   0x0000016e   Code   RO          601    i.lcd_ex_ssd1963_reginit  lcd.o
    0x0800d34c   0x0800d34c   0x000001a8   Code   RO          602    i.lcd_ex_st7789_reginit  lcd.o
    0x0800d4f4   0x0800d4f4   0x000001c6   Code   RO          603    i.lcd_ex_st7796_reginit  lcd.o
    0x0800d6ba   0x0800d6ba   0x00000002   PAD
    0x0800d6bc   0x0800d6bc   0x00000054   Code   RO          604    i.lcd_fill          lcd.o
    0x0800d710   0x0800d710   0x000005e4   Code   RO          606    i.lcd_init          lcd.o
    0x0800dcf4   0x0800dcf4   0x0000000c   Code   RO          607    i.lcd_opt_delay     lcd.o
    0x0800dd00   0x0800dd00   0x00000018   Code   RO          609    i.lcd_rd_data       lcd.o
    0x0800dd18   0x0800dd18   0x00000098   Code   RO          610    i.lcd_read_point    lcd.o
    0x0800ddb0   0x0800ddb0   0x0000023c   Code   RO          611    i.lcd_scan_dir      lcd.o
    0x0800dfec   0x0800dfec   0x00000120   Code   RO          612    i.lcd_set_cursor    lcd.o
    0x0800e10c   0x0800e10c   0x00000140   Code   RO          614    i.lcd_show_char     lcd.o
    0x0800e24c   0x0800e24c   0x0000006a   Code   RO          616    i.lcd_show_string   lcd.o
    0x0800e2b6   0x0800e2b6   0x00000002   PAD
    0x0800e2b8   0x0800e2b8   0x00000060   Code   RO          618    i.lcd_ssd_backlight_set  lcd.o
    0x0800e318   0x0800e318   0x00000018   Code   RO          619    i.lcd_wr_data       lcd.o
    0x0800e330   0x0800e330   0x00000018   Code   RO          620    i.lcd_wr_regno      lcd.o
    0x0800e348   0x0800e348   0x00000014   Code   RO          621    i.lcd_write_ram_prepare  lcd.o
    0x0800e35c   0x0800e35c   0x00000014   Code   RO          622    i.lcd_write_reg     lcd.o
    0x0800e370   0x0800e370   0x00000026   Code   RO         2017    i.ld_clust          ff.o
    0x0800e396   0x0800e396   0x00000018   Code   RO         2018    i.ld_dword          ff.o
    0x0800e3ae   0x0800e3ae   0x00000062   Code   RO         2019    i.ld_qword          ff.o
    0x0800e410   0x0800e410   0x0000000c   Code   RO         2020    i.ld_word           ff.o
    0x0800e41c   0x0800e41c   0x00000064   Code   RO          563    i.led_init          led.o
    0x0800e480   0x0800e480   0x00000040   Code   RO         2021    i.load_obj_xdir     ff.o
    0x0800e4c0   0x0800e4c0   0x0000010e   Code   RO         2022    i.load_xdir         ff.o
    0x0800e5ce   0x0800e5ce   0x00000010   Code   RO         3645    i.log               m_wm.l(log.o)
    0x0800e5de   0x0800e5de   0x00000002   PAD
    0x0800e5e0   0x0800e5e0   0x000007fc   Code   RO           19    i.main              main.o
    0x0800eddc   0x0800eddc   0x0000006a   Code   RO         3378    i.matrix            ATKFREC.lib(matrix.o)
    0x0800ee46   0x0800ee46   0x00000002   PAD
    0x0800ee48   0x0800ee48   0x00000160   Code   RO         3063    i.mcu_load          tjpgd.o
    0x0800efa8   0x0800efa8   0x00000318   Code   RO         3064    i.mcu_output        tjpgd.o
    0x0800f2c0   0x0800f2c0   0x00000020   Code   RO         2532    i.mf_free           fattester.o
    0x0800f2e0   0x0800f2e0   0x00000040   Code   RO         2535    i.mf_init           fattester.o
    0x0800f320   0x0800f320   0x00000064   Code   RO         2546    i.mf_scan_files     fattester.o
    0x0800f384   0x0800f384   0x00000474   Code   RO         2023    i.mount_volume      ff.o
    0x0800f7f8   0x0800f7f8   0x00000034   Code   RO         2024    i.move_window       ff.o
    0x0800f82c   0x0800f82c   0x0000006c   Code   RO         1832    i.my_mem_free       malloc.o
    0x0800f898   0x0800f898   0x00000030   Code   RO         1833    i.my_mem_init       malloc.o
    0x0800f8c8   0x0800f8c8   0x000000a8   Code   RO         1834    i.my_mem_malloc     malloc.o
    0x0800f970   0x0800f970   0x00000040   Code   RO         1835    i.my_mem_perused    malloc.o
    0x0800f9b0   0x0800f9b0   0x00000014   Code   RO         1836    i.my_mem_set        malloc.o
    0x0800f9c4   0x0800f9c4   0x00000024   Code   RO         1837    i.myfree            malloc.o
    0x0800f9e8   0x0800f9e8   0x00000028   Code   RO         1838    i.mymalloc          malloc.o
    0x0800fa10   0x0800fa10   0x0000003c   Code   RO         1111    i.norflash_erase_sector  norflash.o
    0x0800fa4c   0x0800fa4c   0x00000098   Code   RO         1112    i.norflash_init     norflash.o
    0x0800fae4   0x0800fae4   0x00000048   Code   RO         1113    i.norflash_read     norflash.o
    0x0800fb2c   0x0800fb2c   0x00000048   Code   RO         1114    i.norflash_read_id  norflash.o
    0x0800fb74   0x0800fb74   0x00000054   Code   RO         1115    i.norflash_read_sr  norflash.o
    0x0800fbc8   0x0800fbc8   0x00000034   Code   RO         1116    i.norflash_send_address  norflash.o
    0x0800fbfc   0x0800fbfc   0x00000014   Code   RO         1117    i.norflash_wait_busy  norflash.o
    0x0800fc10   0x0800fc10   0x000000b8   Code   RO         1118    i.norflash_write    norflash.o
    0x0800fcc8   0x0800fcc8   0x00000024   Code   RO         1119    i.norflash_write_enable  norflash.o
    0x0800fcec   0x0800fcec   0x00000046   Code   RO         1120    i.norflash_write_nocheck  norflash.o
    0x0800fd32   0x0800fd32   0x00000002   PAD
    0x0800fd34   0x0800fd34   0x00000050   Code   RO         1121    i.norflash_write_page  norflash.o
    0x0800fd84   0x0800fd84   0x00000050   Code   RO         1122    i.norflash_write_sr  norflash.o
    0x0800fdd4   0x0800fdd4   0x0000001e   Code   RO         1562    i.open_door         pwmdac.o
    0x0800fdf2   0x0800fdf2   0x00000002   PAD
    0x0800fdf4   0x0800fdf4   0x00000030   Code   RO          278    i.open_say          syn6288.o
    0x0800fe24   0x0800fe24   0x00000138   Code   RO         1317    i.ov2640_init       ov2640.o
    0x0800ff5c   0x0800ff5c   0x00000088   Code   RO         1320    i.ov2640_outsize_set  ov2640.o
    0x0800ffe4   0x0800ffe4   0x0000004e   Code   RO         1321    i.ov2640_read_reg   ov2640.o
    0x08010032   0x08010032   0x00000002   PAD
    0x08010034   0x08010034   0x00000028   Code   RO         1322    i.ov2640_rgb565_mode  ov2640.o
    0x0801005c   0x0801005c   0x0000004a   Code   RO         1325    i.ov2640_write_reg  ov2640.o
    0x080100a6   0x080100a6   0x00000002   PAD
    0x080100a8   0x080100a8   0x0000008c   Code   RO         2025    i.pick_lfn          ff.o
    0x08010134   0x08010134   0x000000e0   Code   RO         2978    i.piclib_ai_draw_init  piclib.o
    0x08010214   0x08010214   0x000000d0   Code   RO         2979    i.piclib_ai_load_picfile  piclib.o
    0x080102e4   0x080102e4   0x0000002c   Code   RO         2981    i.piclib_fill_color  piclib.o
    0x08010310   0x08010310   0x0000005c   Code   RO         2982    i.piclib_init       piclib.o
    0x0801036c   0x0801036c   0x00000028   Code   RO         3034    i.piclib_is_element_ok  piclib.o
    0x08010394   0x08010394   0x0000000e   Code   RO         2983    i.piclib_mem_free   piclib.o
    0x080103a2   0x080103a2   0x0000000e   Code   RO         2984    i.piclib_mem_malloc  piclib.o
    0x080103b0   0x080103b0   0x00000002   Code   RO         3315    i.printMatrixCreate  ATKFREC.lib(gabor.o)
    0x080103b2   0x080103b2   0x00000144   Code   RO         2026    i.put_fat           ff.o
    0x080104f6   0x080104f6   0x00000002   PAD
    0x080104f8   0x080104f8   0x00000080   Code   RO         2027    i.put_lfn           ff.o
    0x08010578   0x08010578   0x00000042   Code   RO         2028    i.put_utf           ff.o
    0x080105ba   0x080105ba   0x00000002   PAD
    0x080105bc   0x080105bc   0x00000104   Code   RO         1563    i.pwmdac_init       pwmdac.o
    0x080106c0   0x080106c0   0x00000006   Code   RO         1603    i.read_addr         usmart.o
    0x080106c6   0x080106c6   0x0000014a   Code   RO         2032    i.remove_chain      ff.o
    0x08010810   0x08010810   0x00000082   Code   RO         3065    i.restart           tjpgd.o
    0x08010892   0x08010892   0x0000000a   Code   RO         1430    i.sccb_delay        sccb.o
    0x0801089c   0x0801089c   0x00000054   Code   RO         1431    i.sccb_init         sccb.o
    0x080108f0   0x080108f0   0x00000034   Code   RO         1432    i.sccb_nack         sccb.o
    0x08010924   0x08010924   0x00000048   Code   RO         1433    i.sccb_read_byte    sccb.o
    0x0801096c   0x0801096c   0x00000078   Code   RO         1434    i.sccb_send_byte    sccb.o
    0x080109e4   0x080109e4   0x0000003c   Code   RO         1435    i.sccb_start        sccb.o
    0x08010a20   0x08010a20   0x00000034   Code   RO         1436    i.sccb_stop         sccb.o
    0x08010a54   0x08010a54   0x000001d4   Code   RO          915    i.sd_init           sdio_sdcard.o
    0x08010c28   0x08010c28   0x00000040   Code   RO          916    i.sd_read_disk      sdio_sdcard.o
    0x08010c68   0x08010c68   0x00000040   Code   RO          917    i.sd_write_disk     sdio_sdcard.o
    0x08010ca8   0x08010ca8   0x00000014   Code   RO          918    i.sdmmc_clock_set   sdio_sdcard.o
    0x08010cbc   0x08010cbc   0x00000038   Code   RO          919    i.sdmmc_cmd_error   sdio_sdcard.o
    0x08010cf4   0x08010cf4   0x0000007c   Code   RO          920    i.sdmmc_cmd_resp1_error  sdio_sdcard.o
    0x08010d70   0x08010d70   0x00000068   Code   RO          921    i.sdmmc_cmd_resp2_error  sdio_sdcard.o
    0x08010dd8   0x08010dd8   0x0000004c   Code   RO          922    i.sdmmc_cmd_resp3_error  sdio_sdcard.o
    0x08010e24   0x08010e24   0x000000b0   Code   RO          923    i.sdmmc_cmd_resp6_error  sdio_sdcard.o
    0x08010ed4   0x08010ed4   0x0000005c   Code   RO          924    i.sdmmc_cmd_resp7_error  sdio_sdcard.o
    0x08010f30   0x08010f30   0x00000140   Code   RO          925    i.sdmmc_find_scr    sdio_sdcard.o
    0x08011070   0x08011070   0x00000310   Code   RO          926    i.sdmmc_get_card_info  sdio_sdcard.o
    0x08011380   0x08011380   0x00000114   Code   RO          928    i.sdmmc_initialize_cards  sdio_sdcard.o
    0x08011494   0x08011494   0x000000a0   Code   RO          929    i.sdmmc_is_card_programming  sdio_sdcard.o
    0x08011534   0x08011534   0x00000170   Code   RO          930    i.sdmmc_power_on    sdio_sdcard.o
    0x080116a4   0x080116a4   0x00000204   Code   RO          931    i.sdmmc_read_blocks  sdio_sdcard.o
    0x080118a8   0x080118a8   0x00000016   Code   RO          932    i.sdmmc_select_deselect  sdio_sdcard.o
    0x080118be   0x080118be   0x00000002   PAD
    0x080118c0   0x080118c0   0x00000028   Code   RO          933    i.sdmmc_send_cmd    sdio_sdcard.o
    0x080118e8   0x080118e8   0x00000038   Code   RO          934    i.sdmmc_send_data_cfg  sdio_sdcard.o
    0x08011920   0x08011920   0x00000084   Code   RO          936    i.sdmmc_wide_bus_enable  sdio_sdcard.o
    0x080119a4   0x080119a4   0x00000060   Code   RO          937    i.sdmmc_wide_bus_operation  sdio_sdcard.o
    0x08011a04   0x08011a04   0x000002e0   Code   RO          938    i.sdmmc_write_blocks  sdio_sdcard.o
    0x08011ce4   0x08011ce4   0x000000e0   Code   RO         1071    i.spi1_init         spi.o
    0x08011dc4   0x08011dc4   0x00000030   Code   RO         1072    i.spi1_read_write_byte  spi.o
    0x08011df4   0x08011df4   0x00000034   Code   RO         1073    i.spi1_set_speed    spi.o
    0x08011e28   0x08011e28   0x0000006e   Code   RO         3697    i.sqrt              m_wm.l(sqrt.o)
    0x08011e96   0x08011e96   0x00000002   PAD
    0x08011e98   0x08011e98   0x000001b4   Code   RO          867    i.sram_init         sram.o
    0x0801204c   0x0801204c   0x00000024   Code   RO         2033    i.st_clust          ff.o
    0x08012070   0x08012070   0x00000018   Code   RO         2034    i.st_dword          ff.o
    0x08012088   0x08012088   0x0000005c   Code   RO         2035    i.st_qword          ff.o
    0x080120e4   0x080120e4   0x0000000c   Code   RO         2036    i.st_word           ff.o
    0x080120f0   0x080120f0   0x000002dc   Code   RO         2830    i.stdbmp_decode     bmp.o
    0x080123cc   0x080123cc   0x00000072   Code   RO         2037    i.store_xdir        ff.o
    0x0801243e   0x0801243e   0x00000020   Code   RO         2038    i.sum_sfn           ff.o
    0x0801245e   0x0801245e   0x00000002   PAD
    0x08012460   0x08012460   0x0000003c   Code   RO           21    i.sw_ov2640_mode    main.o
    0x0801249c   0x0801249c   0x0000003c   Code   RO           22    i.sw_sdcard_mode    main.o
    0x080124d8   0x080124d8   0x0000008c   Code   RO         2039    i.sync_fs           ff.o
    0x08012564   0x08012564   0x0000004a   Code   RO         2040    i.sync_window       ff.o
    0x080125ae   0x080125ae   0x00000002   PAD
    0x080125b0   0x080125b0   0x0000018c   Code   RO          382    i.sys_clock_set     sys.o
    0x0801273c   0x0801273c   0x00000068   Code   RO          383    i.sys_gpio_af_set   sys.o
    0x080127a4   0x080127a4   0x00000010   Code   RO          384    i.sys_gpio_pin_get  sys.o
    0x080127b4   0x080127b4   0x00000018   Code   RO          385    i.sys_gpio_pin_set  sys.o
    0x080127cc   0x080127cc   0x000000de   Code   RO          386    i.sys_gpio_set      sys.o
    0x080128aa   0x080128aa   0x00000004   Code   RO          387    i.sys_intx_disable  sys.o
    0x080128ae   0x080128ae   0x00000004   Code   RO          388    i.sys_intx_enable   sys.o
    0x080128b2   0x080128b2   0x00000002   PAD
    0x080128b4   0x080128b4   0x00000078   Code   RO          391    i.sys_nvic_init     sys.o
    0x0801292c   0x0801292c   0x00000028   Code   RO          392    i.sys_nvic_priority_group_config  sys.o
    0x08012954   0x08012954   0x00000010   Code   RO          393    i.sys_nvic_set_vector_table  sys.o
    0x08012964   0x08012964   0x00000040   Code   RO          396    i.sys_stm32_clock_init  sys.o
    0x080129a4   0x080129a4   0x0000004c   Code   RO         2041    i.tchar2uni         ff.o
    0x080129f0   0x080129f0   0x000000e0   Code   RO         2787    i.text_get_hz_mat   text.o
    0x08012ad0   0x08012ad0   0x000000e0   Code   RO         2788    i.text_show_font    text.o
    0x08012bb0   0x08012bb0   0x000000c6   Code   RO         2789    i.text_show_string  text.o
    0x08012c76   0x08012c76   0x00000002   PAD
    0x08012c78   0x08012c78   0x000000bc   Code   RO         1264    i.usart2_init       usart2.o
    0x08012d34   0x08012d34   0x000000e0   Code   RO          503    i.usart_init        usart.o
    0x08012e14   0x08012e14   0x000000b0   Code   RO         1604    i.usmart_cmd_rec    usmart.o
    0x08012ec4   0x08012ec4   0x000002d4   Code   RO         1605    i.usmart_exe        usmart.o
    0x08013198   0x08013198   0x000000d4   Code   RO         1747    i.usmart_get_aparm  usmart_str.o
    0x0801326c   0x0801326c   0x00000036   Code   RO         1748    i.usmart_get_cmdname  usmart_str.o
    0x080132a2   0x080132a2   0x00000002   PAD
    0x080132a4   0x080132a4   0x000001c0   Code   RO         1749    i.usmart_get_fname  usmart_str.o
    0x08013464   0x08013464   0x0000010c   Code   RO         1750    i.usmart_get_fparam  usmart_str.o
    0x08013570   0x08013570   0x00000028   Code   RO         1700    i.usmart_get_input_string  usmart_port.o
    0x08013598   0x08013598   0x00000020   Code   RO         1751    i.usmart_get_parmpos  usmart_str.o
    0x080135b8   0x080135b8   0x00000018   Code   RO         1606    i.usmart_init       usmart.o
    0x080135d0   0x080135d0   0x00000016   Code   RO         1752    i.usmart_pow        usmart_str.o
    0x080135e6   0x080135e6   0x00000002   PAD
    0x080135e8   0x080135e8   0x000000a8   Code   RO         1607    i.usmart_scan       usmart.o
    0x08013690   0x08013690   0x00000016   Code   RO         1753    i.usmart_search_nextc  usmart_str.o
    0x080136a6   0x080136a6   0x00000106   Code   RO         1754    i.usmart_str2num    usmart_str.o
    0x080137ac   0x080137ac   0x00000022   Code   RO         1755    i.usmart_strcmp     usmart_str.o
    0x080137ce   0x080137ce   0x00000016   Code   RO         1756    i.usmart_strcopy    usmart_str.o
    0x080137e4   0x080137e4   0x00000018   Code   RO         1757    i.usmart_strlen     usmart_str.o
    0x080137fc   0x080137fc   0x000006f4   Code   RO         1608    i.usmart_sys_cmd_exe  usmart.o
    0x08013ef0   0x08013ef0   0x00000040   Code   RO         1701    i.usmart_timx_get_time  usmart_port.o
    0x08013f30   0x08013f30   0x00000068   Code   RO         1702    i.usmart_timx_init  usmart_port.o
    0x08013f98   0x08013f98   0x00000030   Code   RO         1703    i.usmart_timx_reset_time  usmart_port.o
    0x08013fc8   0x08013fc8   0x0000003c   Code   RO         2042    i.validate          ff.o
    0x08014004   0x08014004   0x00000036   Code   RO         3379    i.vector            ATKFREC.lib(matrix.o)
    0x0801403a   0x0801403a   0x00000004   Code   RO         1609    i.write_addr        usmart.o
    0x0801403e   0x0801403e   0x0000003a   Code   RO         2043    i.xdir_sum          ff.o
    0x08014078   0x08014078   0x0000004c   Code   RO         2044    i.xname_sum         ff.o
    0x080140c4   0x080140c4   0x00000018   Code   RO         3742    x$fpl$basic         fz_wm.l(basic.o)
    0x080140dc   0x080140dc   0x00000062   Code   RO         3579    x$fpl$d2f           fz_wm.l(d2f.o)
    0x0801413e   0x0801413e   0x00000002   PAD
    0x08014140   0x08014140   0x00000150   Code   RO         3581    x$fpl$dadd          fz_wm.l(daddsub_clz.o)
    0x08014290   0x08014290   0x00000010   Code   RO         3834    x$fpl$dcheck1       fz_wm.l(dcheck1.o)
    0x080142a0   0x080142a0   0x00000018   Code   RO         3836    x$fpl$dcmpinf       fz_wm.l(dcmpi.o)
    0x080142b8   0x080142b8   0x000002b0   Code   RO         3588    x$fpl$ddiv          fz_wm.l(ddiv.o)
    0x08014568   0x08014568   0x00000078   Code   RO         3744    x$fpl$deqf          fz_wm.l(deqf.o)
    0x080145e0   0x080145e0   0x0000005e   Code   RO         3591    x$fpl$dfix          fz_wm.l(dfix.o)
    0x0801463e   0x0801463e   0x00000002   PAD
    0x08014640   0x08014640   0x0000005a   Code   RO         3595    x$fpl$dfixu         fz_wm.l(dfixu.o)
    0x0801469a   0x0801469a   0x0000002e   Code   RO         3600    x$fpl$dflt          fz_wm.l(dflt_clz.o)
    0x080146c8   0x080146c8   0x00000026   Code   RO         3599    x$fpl$dfltu         fz_wm.l(dflt_clz.o)
    0x080146ee   0x080146ee   0x00000002   PAD
    0x080146f0   0x080146f0   0x00000078   Code   RO         3746    x$fpl$dleqf         fz_wm.l(dleqf.o)
    0x08014768   0x08014768   0x00000154   Code   RO         3605    x$fpl$dmul          fz_wm.l(dmul.o)
    0x080148bc   0x080148bc   0x0000009c   Code   RO         3748    x$fpl$dnaninf       fz_wm.l(dnaninf.o)
    0x08014958   0x08014958   0x0000000c   Code   RO         3750    x$fpl$dretinf       fz_wm.l(dretinf.o)
    0x08014964   0x08014964   0x0000006c   Code   RO         3607    x$fpl$drleqf        fz_wm.l(drleqf.o)
    0x080149d0   0x080149d0   0x00000016   Code   RO         3582    x$fpl$drsb          fz_wm.l(daddsub_clz.o)
    0x080149e6   0x080149e6   0x00000002   PAD
    0x080149e8   0x080149e8   0x00000198   Code   RO         3752    x$fpl$dsqrt         fz_wm.l(dsqrt_umaal.o)
    0x08014b80   0x08014b80   0x000001d4   Code   RO         3583    x$fpl$dsub          fz_wm.l(daddsub_clz.o)
    0x08014d54   0x08014d54   0x00000056   Code   RO         3609    x$fpl$f2d           fz_wm.l(f2d.o)
    0x08014daa   0x08014daa   0x0000008c   Code   RO         3754    x$fpl$fnaninf       fz_wm.l(fnaninf.o)
    0x08014e36   0x08014e36   0x0000000a   Code   RO         3925    x$fpl$fpinit        fz_wm.l(fpinit.o)
    0x08014e40   0x08014e40   0x0000000a   Code   RO         3756    x$fpl$fretinf       fz_wm.l(fretinf.o)
    0x08014e4a   0x08014e4a   0x00000064   Code   RO         3855    x$fpl$retnan        fz_wm.l(retnan.o)
    0x08014eae   0x08014eae   0x0000005c   Code   RO         3758    x$fpl$scalbn        fz_wm.l(scalbn.o)
    0x08014f0a   0x08014f0a   0x00000030   Code   RO         3910    x$fpl$trapveneer    fz_wm.l(trapv.o)
    0x08014f3a   0x08014f3a   0x00000000   Code   RO         3760    x$fpl$usenofp       fz_wm.l(usenofp.o)
    0x08014f3a   0x08014f3a   0x00002f80   Data   RO          624    .constdata          lcd.o
    0x08017eba   0x08017eba   0x00000328   Data   RO         1326    .constdata          ov2640.o
    0x080181e2   0x080181e2   0x00000002   PAD
    0x080181e4   0x080181e4   0x00000024   Data   RO         1845    .constdata          malloc.o
    0x08018208   0x08018208   0x00000058   Data   RO         2046    .constdata          ff.o
    0x08018260   0x08018260   0x000000c4   Data   RO         2462    .constdata          exfuns.o
    0x08018324   0x08018324   0x000002ae   Data   RO         2701    .constdata          myffunicode.o
    0x080185d2   0x080185d2   0x00000028   Data   RO         2883    .constdata          gif.o
    0x080185fa   0x080185fa   0x000004c0   Data   RO         3066    .constdata          tjpgd.o
    0x08018aba   0x08018aba   0x00000028   Data   RO         3509    .constdata          c_w.l(_printf_hex_int.o)
    0x08018ae2   0x08018ae2   0x00000011   Data   RO         3544    .constdata          c_w.l(__printf_flags_ss_wp.o)
    0x08018af3   0x08018af3   0x00000005   PAD
    0x08018af8   0x08018af8   0x00000058   Data   RO         3632    .constdata          m_wm.l(exp.o)
    0x08018b50   0x08018b50   0x00000038   Data   RO         3646    .constdata          m_wm.l(log.o)
    0x08018b88   0x08018b88   0x00000088   Data   RO         3672    .constdata          m_wm.l(pow.o)
    0x08018c10   0x08018c10   0x00000030   Data   RO         3762    .constdata          m_wm.l(cos_i.o)
    0x08018c40   0x08018c40   0x00000008   Data   RO         3788    .constdata          m_wm.l(qnan.o)
    0x08018c48   0x08018c48   0x000000c8   Data   RO         3791    .constdata          m_wm.l(rred.o)
    0x08018d10   0x08018d10   0x00000028   Data   RO         3795    .constdata          m_wm.l(sin_i.o)
    0x08018d38   0x08018d38   0x00000060   Data   RO         3801    .constdata          m_wm.l(tan_i.o)
    0x08018d98   0x08018d98   0x00000028   Data   RO         1610    .conststring        usmart.o
    0x08018dc0   0x08018dc0   0x0000021e   Data   RO         1670    .conststring        usmart_config.o
    0x08018fde   0x08018fde   0x00000002   PAD
    0x08018fe0   0x08018fe0   0x00000054   Data   RO         2463    .conststring        exfuns.o
    0x08019034   0x08019034   0x00000020   Data   RO         3976    Region$$Table       anon$$obj.o


    Execution Region RW_IRAM1 (Exec base: 0x20000000, Load base: 0x08019054, Size: 0x0001c310, Max: 0x00020000, ABSOLUTE, COMPRESSED[0x0000009c])

    Exec Addr    Load Addr    Size         Type   Attr      Idx    E Section Name        Object

    0x20000000   COMPRESSED   0x00000018   Data   RW           23    .data               main.o
    0x20000018   COMPRESSED   0x00000004   Data   RW          347    .data               delay.o
    0x2000001c   COMPRESSED   0x00000006   Data   RW          505    .data               usart.o
    0x20000022   COMPRESSED   0x00000002   PAD
    0x20000024   COMPRESSED   0x00000008   Data   RW          625    .data               lcd.o
    0x2000002c   COMPRESSED   0x00000001   Data   RW          838    .data               key.o
    0x2000002d   COMPRESSED   0x00000003   PAD
    0x20000030   COMPRESSED   0x00000008   Data   RW          940    .data               sdio_sdcard.o
    0x20000038   COMPRESSED   0x00000002   Data   RW         1124    .data               norflash.o
    0x2000003a   COMPRESSED   0x00000002   PAD
    0x2000003c   COMPRESSED   0x00000008   Data   RW         1497    .data               dcmi.o
    0x20000044   COMPRESSED   0x0000001c   Data   RW         1611    .data               usmart.o
    0x20000060   COMPRESSED   0x00000144   Data   RW         1671    .data               usmart_config.o
    0x200001a4   COMPRESSED   0x00000024   Data   RW         1846    .data               malloc.o
    0x200001c8   COMPRESSED   0x0000000a   Data   RW         2047    .data               ff.o
    0x200001d2   COMPRESSED   0x00000002   PAD
    0x200001d4   COMPRESSED   0x00000008   Data   RW         2464    .data               exfuns.o
    0x200001dc   COMPRESSED   0x00000001   Data   RW         2884    .data               gif.o
    0x200001dd   COMPRESSED   0x00000003   PAD
    0x200001e0   COMPRESSED   0x0000000c   Data   RW         3067    .data               tjpgd.o
    0x200001ec   COMPRESSED   0x00000004   Data   RW         3239    .data               ATKFREC.lib(recog.o)
    0x200001f0   COMPRESSED   0x00000040   Data   RW         3316    .data               ATKFREC.lib(gabor.o)
    0x20000230   COMPRESSED   0x0000001c   Data   RW         3380    .data               ATKFREC.lib(matrix.o)
    0x2000024c        -       0x000000c8   Zero   RW          504    .bss                usart.o
    0x20000314        -       0x0000000e   Zero   RW          623    .bss                lcd.o
    0x20000322   COMPRESSED   0x00000006   PAD
    0x20000328        -       0x00000078   Zero   RW          939    .bss                sdio_sdcard.o
    0x200003a0        -       0x00001000   Zero   RW         1123    .bss                norflash.o
    0x200013a0   COMPRESSED   0x00000020   PAD
    0x200013c0        -       0x0001a900   Zero   RW         1844    .bss                malloc.o
    0x2001bcc0        -       0x00000180   Zero   RW         2553    .bss                fattester.o
    0x2001be40        -       0x00000021   Zero   RW         2739    .bss                fonts.o
    0x2001be61   COMPRESSED   0x00000003   PAD
    0x2001be64        -       0x0000003c   Zero   RW         2985    .bss                piclib.o
    0x2001bea0        -       0x00000010   Zero   RW         3238    .bss                ATKFREC.lib(recog.o)
    0x2001beb0        -       0x00000060   Zero   RW         3839    .bss                c_w.l(libspace.o)
    0x2001bf10        -       0x00000000   Zero   RW            2    HEAP                startup_stm32f407xx.o
    0x2001bf10        -       0x00000400   Zero   RW            1    STACK               startup_stm32f407xx.o



  Load Region LR$$.ARM.__AT_0x10000000 (Base: 0x10000000, Size: 0x00000000, Max: 0x0000f000, ABSOLUTE)

    Execution Region ER$$.ARM.__AT_0x10000000 (Exec base: 0x10000000, Load base: 0x10000000, Size: 0x0000f000, Max: 0x0000f000, ABSOLUTE, UNINIT)

    Exec Addr    Load Addr    Size         Type   Attr      Idx    E Section Name        Object

    0x10000000        -       0x0000f000   Zero   RW         1840    .ARM.__AT_0x10000000  malloc.o



  Load Region LR$$.ARM.__AT_0x1000F000 (Base: 0x1000f000, Size: 0x00000000, Max: 0x00000f00, ABSOLUTE)

    Execution Region ER$$.ARM.__AT_0x1000F000 (Exec base: 0x1000f000, Load base: 0x1000f000, Size: 0x00000f00, Max: 0x00000f00, ABSOLUTE, UNINIT)

    Exec Addr    Load Addr    Size         Type   Attr      Idx    E Section Name        Object

    0x1000f000        -       0x00000f00   Zero   RW         1841    .ARM.__AT_0x1000F000  malloc.o



  Load Region LR$$.ARM.__AT_0x68000000 (Base: 0x68000000, Size: 0x00000000, Max: 0x000f0c00, ABSOLUTE)

    Execution Region ER$$.ARM.__AT_0x68000000 (Exec base: 0x68000000, Load base: 0x68000000, Size: 0x000f0c00, Max: 0x000f0c00, ABSOLUTE, UNINIT)

    Exec Addr    Load Addr    Size         Type   Attr      Idx    E Section Name        Object

    0x68000000        -       0x000f0c00   Zero   RW         1842    .ARM.__AT_0x68000000  malloc.o



  Load Region LR$$.ARM.__AT_0x680F0C00 (Base: 0x680f0c00, Size: 0x00000000, Max: 0x0000f0c0, ABSOLUTE)

    Execution Region ER$$.ARM.__AT_0x680F0C00 (Exec base: 0x680f0c00, Load base: 0x680f0c00, Size: 0x0000f0c0, Max: 0x0000f0c0, ABSOLUTE, UNINIT)

    Exec Addr    Load Addr    Size         Type   Attr      Idx    E Section Name        Object

    0x680f0c00        -       0x0000f0c0   Zero   RW         1843    .ARM.__AT_0x680F0C00  malloc.o


==============================================================================

Image component sizes


      Code (inc. data)   RO Data    RW Data    ZI Data      Debug   Object Name

       424         98          0          0          0       7725   atk_frec.o
        60         10          0          0          0        544   beep.o
      1228         16          0          0          0       5217   bmp.o
       140         36          0          0          0       1239   btim.o
       724         76          0          8          0       4519   dcmi.o
       134         10          0          4          0       2151   delay.o
       478          6          0          0          0       5718   diskio.o
       286         10        280          8          0       3424   exfuns.o
       158          0          0          0          0       1294   face_recognition.o
       196         38          0          0        384       3304   fattester.o
     14156        110         88         10          0      85280   ff.o
        32          0          0          0          0       1821   ffsystem.o
        64          4          0          0         33       2322   fonts.o
      3734         24         40          1          0      14612   gif.o
       348         26          0          1          0       1318   key.o
     14144        188      12160          8         14      28140   lcd.o
       100         10          0          0          0        551   led.o
      2672        532          0         24          0     575585   main.o
       484         54         36         36    1221824       7103   malloc.o
       444         32        686          0          0       3156   myffunicode.o
       962         56          0          2       4096       9128   norflash.o
       640         40        808          0          0       5265   ov2640.o
       636         60          0          0         60       6880   piclib.o
       300          8          0          0          0       1803   pwmdac.o
       450         36          0          0          0       4147   sccb.o
      4750        262          0          8        120      28738   sdio_sdcard.o
       324         24          0          0          0       1832   spi.o
       436         24          0          0          0        660   sram.o
        68         24        392          0       1024       1020   startup_stm32f407xx.o
       262        104          0          0          0       2979   syn6288.o
      1010         36          0          0          0       8115   sys.o
       646         10          0          0          0       3864   text.o
      3982         96       1216         12          0      21275   tjpgd.o
       384         36          0          6        200       4541   usart.o
       244         24          0          0          0       2352   usart2.o
      2882       1310         40         28          0       6434   usmart.o
         0          0        542        324          0       1768   usmart_config.o
       316         48          0          0          0       3023   usmart_port.o
      1400         20          0          0          0       9993   usmart_str.o

    ----------------------------------------------------------------------
     59762       3498      16324        492    1227796     878840   Object Totals
         0          0         32          0          0          0   (incl. Generated)
        64          0          4         12         41          0   (incl. Padding)

    ----------------------------------------------------------------------

      Code (inc. data)   RO Data    RW Data    ZI Data      Debug   Library Member Name

      4760        396          0         64          0       7253   gabor.o
      3154        156          0         28          0      14449   matrix.o
      1944        102          0          4         16       9834   recog.o
        90          0          0          0          0          0   __dczerorl2.o
         8          0          0          0          0         68   __main.o
       392          4         17          0          0         92   __printf_flags_ss_wp.o
        14          0          0          0          0         68   __printf_wp.o
         0          0          0          0          0          0   __rtentry.o
        12          0          0          0          0          0   __rtentry2.o
         6          0          0          0          0          0   __rtentry4.o
        52          8          0          0          0          0   __scatter.o
        28          0          0          0          0          0   __scatter_zi.o
         6          0          0          0          0          0   _printf_c.o
        44          0          0          0          0        108   _printf_char.o
        48          6          0          0          0         96   _printf_char_common.o
        36          4          0          0          0         80   _printf_char_file.o
         6          0          0          0          0          0   _printf_d.o
       120         16          0          0          0         92   _printf_dec.o
        88          4         40          0          0         88   _printf_hex_int.o
       178          0          0          0          0         88   _printf_intcommon.o
        78          0          0          0          0        108   _printf_pad.o
         0          0          0          0          0          0   _printf_percent.o
         4          0          0          0          0          0   _printf_percent_end.o
         6          0          0          0          0          0   _printf_s.o
        82          0          0          0          0         80   _printf_str.o
         6          0          0          0          0          0   _printf_u.o
         6          0          0          0          0          0   _printf_x.o
        22          0          0          0          0        100   _rserrno.o
        10          0          0          0          0         68   _sputc.o
        16          0          0          0          0         68   aeabi_memset.o
        18          0          0          0          0         80   exit.o
         8          0          0          0          0         68   ferror.o
         6          0          0          0          0        152   heapauxi.o
         2          0          0          0          0          0   libinit.o
         6          0          0          0          0          0   libinit2.o
         2          0          0          0          0          0   libshutdown.o
         2          0          0          0          0          0   libshutdown2.o
         8          4          0          0         96         68   libspace.o
        72          0          0          0          0         76   llsdiv.o
       238          0          0          0          0        100   lludivv7m.o
        88          0          0          0          0         76   memcmp.o
        24          4          0          0          0         84   noretval__2printf.o
        40          6          0          0          0         84   noretval__2sprintf.o
         8          4          0          0          0         68   rt_errno_addr_intlibspace.o
        68          0          0          0          0         68   rt_memclr.o
        78          0          0          0          0         80   rt_memclr_w.o
       138          0          0          0          0         68   rt_memcpy_v6.o
       100          0          0          0          0         80   rt_memcpy_w.o
         2          0          0          0          0          0   rtexit.o
        10          0          0          0          0          0   rtexit2.o
        20          0          0          0          0         68   strchr.o
       128          0          0          0          0         68   strcmpv7m.o
        72          0          0          0          0         80   strcpy.o
        62          0          0          0          0         76   strlen.o
        74          0          0          0          0         80   sys_stackheap_outer.o
         2          0          0          0          0         68   use_no_semi.o
         2          0          0          0          0         68   use_no_semi_2.o
        24          0          0          0          0        164   basic.o
        98          4          0          0          0        140   d2f.o
       826         16          0          0          0        492   daddsub_clz.o
        16          4          0          0          0        116   dcheck1.o
        24          0          0          0          0        116   dcmpi.o
       688        140          0          0          0        256   ddiv.o
       120          4          0          0          0        140   deqf.o
        94          4          0          0          0        140   dfix.o
        90          4          0          0          0        140   dfixu.o
        84          0          0          0          0        232   dflt_clz.o
       120          4          0          0          0        140   dleqf.o
       340         12          0          0          0        152   dmul.o
       156          4          0          0          0        140   dnaninf.o
        12          0          0          0          0        116   dretinf.o
       108          0          0          0          0        128   drleqf.o
       408         56          0          0          0        168   dsqrt_umaal.o
        86          4          0          0          0        132   f2d.o
       140          4          0          0          0        132   fnaninf.o
        10          0          0          0          0        116   fpinit.o
        10          0          0          0          0        116   fretinf.o
       100          0          0          0          0        116   retnan.o
        92          0          0          0          0        116   scalbn.o
        48          0          0          0          0        116   trapv.o
         0          0          0          0          0          0   usenofp.o
       280         28          0          0          0        156   ceil.o
       200         20          0          0          0        164   cos.o
       368         46         48          0          0        200   cos_i.o
       184         44          0          0          0        744   dunder.o
       856        142         88          0          0        288   exp.o
        24          0          0          0          0        124   fabs.o
        48          0          0          0          0        124   fpclassify.o
       980         92         56          0          0        440   log.o
       304         44          0          0          0        200   log10.o
       248          0          0          0          0        152   poly.o
      3152        296        136          0          0        352   pow.o
         0          0          8          0          0          0   qnan.o
      1080        142        200          0          0        188   rred.o
       200         20          0          0          0        164   sin.o
       304         24         40          0          0        208   sin_i.o
       232          0          0          0          0        296   sqrt.o
       128         20          0          0          0        144   tan.o
       848         84         96          0          0        196   tan_i.o

    ----------------------------------------------------------------------
     25664       1980        734         96        112      42164   Library Totals
        40          4          5          0          0          0   (incl. Padding)

    ----------------------------------------------------------------------

      Code (inc. data)   RO Data    RW Data    ZI Data      Debug   Library Name

      9858        654          0         96         16      31536   ATKFREC.lib
      2636         60         57          0         96       2864   c_w.l
      3694        260          0          0          0       3624   fz_wm.l
      9436       1002        672          0          0       4140   m_wm.l

    ----------------------------------------------------------------------
     25664       1980        734         96        112      42164   Library Totals

    ----------------------------------------------------------------------

==============================================================================


      Code (inc. data)   RO Data    RW Data    ZI Data      Debug   

     85426       5478      17058        588    1227908     883692   Grand Totals
     85426       5478      17058        156    1227908     883692   ELF Image Totals (compressed)
     85426       5478      17058        156          0          0   ROM Totals

==============================================================================

    Total RO  Size (Code + RO Data)               102484 ( 100.08kB)
    Total RW  Size (RW Data + ZI Data)           1228496 (1199.70kB)
    Total ROM Size (Code + RO Data + RW Data)     102640 ( 100.23kB)

==============================================================================

